
out.elf:     file format elf32-tradlittlemips


Disassembly of section .config_BFC02FF0:

bfc02ff0 <__config_BFC02FF0>:
bfc02ff0:	ff ff fe fa                                         ....

Disassembly of section .config_BFC02FF4:

bfc02ff4 <__config_BFC02FF4>:
bfc02ff4:	d9 79 f8 ff                                         .y..

Disassembly of section .config_BFC02FF8:

bfc02ff8 <__config_BFC02FF8>:
bfc02ff8:	db ce 6c ff                                         ..l.

Disassembly of section .config_BFC02FFC:

bfc02ffc <__config_BFC02FFC>:
bfc02ffc:	ff ff ff 7e                                         ...~

Disassembly of section .reset:

bd001970 <_reset>:
bd001970:	0f40065e 	jal	bd001978 <_startup>
bd001974:	00000000 	nop

bd001978 <_startup>:
bd001978:	401a6000 	mfc0	k0,c0_status
bd00197c:	7f5a04c0 	ext	k0,k0,0x13,0x1
bd001980:	13400005 	beqz	k0,bd001998 <_no_nmi>
bd001984:	00000000 	nop
bd001988:	3c1a9d00 	lui	k0,0x9d00
bd00198c:	275a2574 	addiu	k0,k0,9588
bd001990:	03400008 	jr	k0
bd001994:	00000000 	nop

bd001998 <_no_nmi>:
bd001998:	3c1da002 	lui	sp,0xa002
bd00199c:	27bdfff0 	addiu	sp,sp,-16
bd0019a0:	3c1ca001 	lui	gp,0xa001
bd0019a4:	279c8000 	addiu	gp,gp,-32768
bd0019a8:	40096002 	mfc0	t1,c0_srsctl
bd0019ac:	01205820 	add	t3,t1,zero
bd0019b0:	7d2a1e80 	ext	t2,t1,0x1a,0x4
bd0019b4:	7d494984 	ins	t1,t2,0x6,0x4
bd0019b8:	40896002 	mtc0	t1,c0_srsctl
bd0019bc:	000000c0 	ehb
bd0019c0:	41dce000 	wrpgpr	gp,gp
bd0019c4:	408b6002 	mtc0	t3,c0_srsctl
bd0019c8:	000000c0 	ehb
bd0019cc:	3c089d00 	lui	t0,0x9d00
bd0019d0:	250825c4 	addiu	t0,t0,9668
bd0019d4:	0100f809 	jalr	t0
bd0019d8:	00000000 	nop

bd0019dc <_start_bss_init>:
bd0019dc:	3c08a000 	lui	t0,0xa000
bd0019e0:	25080008 	addiu	t0,t0,8
bd0019e4:	3c09a000 	lui	t1,0xa000
bd0019e8:	25290008 	addiu	t1,t1,8
bd0019ec:	10000003 	b	bd0019fc <_bss_check>
bd0019f0:	00000000 	nop

bd0019f4 <_bss_init>:
bd0019f4:	ad000000 	sw	zero,0(t0)
bd0019f8:	25080004 	addiu	t0,t0,4

bd0019fc <_bss_check>:
bd0019fc:	0109082b 	sltu	at,t0,t1
bd001a00:	1420fffc 	bnez	at,bd0019f4 <_bss_init>
bd001a04:	00000000 	nop
bd001a08:	3c089d00 	lui	t0,0x9d00
bd001a0c:	250822c8 	addiu	t0,t0,8904
bd001a10:	0100f809 	jalr	t0
bd001a14:	00000000 	nop
bd001a18:	3c090000 	lui	t1,0x0
bd001a1c:	25290000 	addiu	t1,t1,0
bd001a20:	11200010 	beqz	t1,bd001a64 <_ramfunc_done>
bd001a24:	00000000 	nop
bd001a28:	3c090002 	lui	t1,0x2
bd001a2c:	25290000 	addiu	t1,t1,0
bd001a30:	3c0abf88 	lui	t2,0xbf88
bd001a34:	254a2010 	addiu	t2,t2,8208
bd001a38:	ad490000 	sw	t1,0(t2)
bd001a3c:	3c090002 	lui	t1,0x2
bd001a40:	25290000 	addiu	t1,t1,0
bd001a44:	3c0abf88 	lui	t2,0xbf88
bd001a48:	254a2020 	addiu	t2,t2,8224
bd001a4c:	ad490000 	sw	t1,0(t2)
bd001a50:	3c090002 	lui	t1,0x2
bd001a54:	25290000 	addiu	t1,t1,0
bd001a58:	3c0abf88 	lui	t2,0xbf88
bd001a5c:	254a2030 	addiu	t2,t2,8240
bd001a60:	ad490000 	sw	t1,0(t2)

bd001a64 <_ramfunc_done>:
bd001a64:	40804800 	mtc0	zero,c0_count
bd001a68:	240affff 	li	t2,-1
bd001a6c:	408a5800 	mtc0	t2,c0_compare
bd001a70:	3c080040 	lui	t0,0x40
bd001a74:	400a6000 	mfc0	t2,c0_status
bd001a78:	010a5025 	or	t2,t0,t2
bd001a7c:	408a6000 	mtc0	t2,c0_status
bd001a80:	3c099d00 	lui	t1,0x9d00
bd001a84:	25290000 	addiu	t1,t1,0
bd001a88:	000000c0 	ehb
bd001a8c:	40897801 	mtc0	t1,c0_ebase
bd001a90:	3c090000 	lui	t1,0x0
bd001a94:	25290001 	addiu	t1,t1,1
bd001a98:	240a0000 	li	t2,0
bd001a9c:	7d2a4944 	ins	t2,t1,0x5,0x5
bd001aa0:	408a6001 	mtc0	t2,c0_intctl
bd001aa4:	3c090080 	lui	t1,0x80
bd001aa8:	40896800 	mtc0	t1,c0_cause
bd001aac:	40088000 	mfc0	t0,c0_config
bd001ab0:	7d090580 	ext	t1,t0,0x16,0x1
bd001ab4:	00094c40 	sll	t1,t1,0x11
bd001ab8:	40086000 	mfc0	t0,c0_status
bd001abc:	3c010058 	lui	at,0x58
bd001ac0:	01014024 	and	t0,t0,at
bd001ac4:	01284025 	or	t0,t1,t0
bd001ac8:	40886000 	mtc0	t0,c0_status
bd001acc:	000000c0 	ehb
bd001ad0:	3c089d00 	lui	t0,0x9d00
bd001ad4:	250825cc 	addiu	t0,t0,9676
bd001ad8:	0100f809 	jalr	t0
bd001adc:	00000000 	nop
bd001ae0:	40086000 	mfc0	t0,c0_status
bd001ae4:	3c01ffbf 	lui	at,0xffbf
bd001ae8:	3421ffff 	ori	at,at,0xffff
bd001aec:	01014024 	and	t0,t0,at
bd001af0:	40886000 	mtc0	t0,c0_status
bd001af4:	30840000 	andi	a0,a0,0x0
bd001af8:	30a50000 	andi	a1,a1,0x0
bd001afc:	3c089d00 	lui	t0,0x9d00
bd001b00:	25082404 	addiu	t0,t0,9220
bd001b04:	01000008 	jr	t0
bd001b08:	00000000 	nop

Disassembly of section .bev_excpt:

bd001cf0 <_bev_exception>:
bd001cf0:	3c1a9d00 	lui	k0,0x9d00
bd001cf4:	275a2458 	addiu	k0,k0,9304
bd001cf8:	03400008 	jr	k0
bd001cfc:	00000000 	nop

Disassembly of section .app_excpt:

9d000180 <_gen_exception>:
9d000180:	3c1a9d00 	lui	k0,0x9d00
9d000184:	275a21ec 	addiu	k0,k0,8684
9d000188:	03400008 	jr	k0
9d00018c:	00000000 	nop

Disassembly of section .vector_0:

9d000200 <__vector_dispatch_0>:
9d000200:	0b40093a 	j	9d0024e8 <.LFE0>
9d000204:	00000000 	nop

Disassembly of section .vector_1:

9d000220 <__vector_dispatch_1>:
9d000220:	0b40093a 	j	9d0024e8 <.LFE0>
9d000224:	00000000 	nop

Disassembly of section .vector_2:

9d000240 <__vector_dispatch_2>:
9d000240:	0b40093a 	j	9d0024e8 <.LFE0>
9d000244:	00000000 	nop

Disassembly of section .vector_3:

9d000260 <__vector_dispatch_3>:
9d000260:	0b40093a 	j	9d0024e8 <.LFE0>
9d000264:	00000000 	nop

Disassembly of section .vector_4:

9d000280 <__vector_dispatch_4>:
9d000280:	0b40093a 	j	9d0024e8 <.LFE0>
9d000284:	00000000 	nop

Disassembly of section .vector_5:

9d0002a0 <__vector_dispatch_5>:
9d0002a0:	0b40093a 	j	9d0024e8 <.LFE0>
9d0002a4:	00000000 	nop

Disassembly of section .vector_6:

9d0002c0 <__vector_dispatch_6>:
9d0002c0:	0b40093a 	j	9d0024e8 <.LFE0>
9d0002c4:	00000000 	nop

Disassembly of section .vector_7:

9d0002e0 <__vector_dispatch_7>:
9d0002e0:	0b40093a 	j	9d0024e8 <.LFE0>
9d0002e4:	00000000 	nop

Disassembly of section .vector_8:

9d000300 <__vector_dispatch_8>:
9d000300:	0b40093a 	j	9d0024e8 <.LFE0>
9d000304:	00000000 	nop

Disassembly of section .vector_9:

9d000320 <__vector_dispatch_9>:
9d000320:	0b40093a 	j	9d0024e8 <.LFE0>
9d000324:	00000000 	nop

Disassembly of section .vector_10:

9d000340 <__vector_dispatch_10>:
9d000340:	0b40093a 	j	9d0024e8 <.LFE0>
9d000344:	00000000 	nop

Disassembly of section .vector_11:

9d000360 <__vector_dispatch_11>:
9d000360:	0b40093a 	j	9d0024e8 <.LFE0>
9d000364:	00000000 	nop

Disassembly of section .vector_12:

9d000380 <__vector_dispatch_12>:
9d000380:	0b40093a 	j	9d0024e8 <.LFE0>
9d000384:	00000000 	nop

Disassembly of section .vector_13:

9d0003a0 <__vector_dispatch_13>:
9d0003a0:	0b40093a 	j	9d0024e8 <.LFE0>
9d0003a4:	00000000 	nop

Disassembly of section .vector_14:

9d0003c0 <__vector_dispatch_14>:
9d0003c0:	0b40093a 	j	9d0024e8 <.LFE0>
9d0003c4:	00000000 	nop

Disassembly of section .vector_15:

9d0003e0 <__vector_dispatch_15>:
9d0003e0:	0b40093a 	j	9d0024e8 <.LFE0>
9d0003e4:	00000000 	nop

Disassembly of section .vector_16:

9d000400 <__vector_dispatch_16>:
9d000400:	0b40093a 	j	9d0024e8 <.LFE0>
9d000404:	00000000 	nop

Disassembly of section .vector_17:

9d000420 <__vector_dispatch_17>:
9d000420:	0b40093a 	j	9d0024e8 <.LFE0>
9d000424:	00000000 	nop

Disassembly of section .vector_18:

9d000440 <__vector_dispatch_18>:
9d000440:	0b40093a 	j	9d0024e8 <.LFE0>
9d000444:	00000000 	nop

Disassembly of section .vector_19:

9d000460 <__vector_dispatch_19>:
9d000460:	0b40093a 	j	9d0024e8 <.LFE0>
9d000464:	00000000 	nop

Disassembly of section .vector_20:

9d000480 <__vector_dispatch_20>:
9d000480:	0b40093a 	j	9d0024e8 <.LFE0>
9d000484:	00000000 	nop

Disassembly of section .vector_21:

9d0004a0 <__vector_dispatch_21>:
9d0004a0:	0b40093a 	j	9d0024e8 <.LFE0>
9d0004a4:	00000000 	nop

Disassembly of section .vector_22:

9d0004c0 <__vector_dispatch_22>:
9d0004c0:	0b40093a 	j	9d0024e8 <.LFE0>
9d0004c4:	00000000 	nop

Disassembly of section .vector_23:

9d0004e0 <__vector_dispatch_23>:
9d0004e0:	0b40093a 	j	9d0024e8 <.LFE0>
9d0004e4:	00000000 	nop

Disassembly of section .vector_24:

9d000500 <__vector_dispatch_24>:
9d000500:	0b40093a 	j	9d0024e8 <.LFE0>
9d000504:	00000000 	nop

Disassembly of section .vector_25:

9d000520 <__vector_dispatch_25>:
9d000520:	0b40093a 	j	9d0024e8 <.LFE0>
9d000524:	00000000 	nop

Disassembly of section .vector_26:

9d000540 <__vector_dispatch_26>:
9d000540:	0b40093a 	j	9d0024e8 <.LFE0>
9d000544:	00000000 	nop

Disassembly of section .vector_27:

9d000560 <__vector_dispatch_27>:
9d000560:	0b40093a 	j	9d0024e8 <.LFE0>
9d000564:	00000000 	nop

Disassembly of section .vector_28:

9d000580 <__vector_dispatch_28>:
9d000580:	0b40093a 	j	9d0024e8 <.LFE0>
9d000584:	00000000 	nop

Disassembly of section .vector_29:

9d0005a0 <__vector_dispatch_29>:
9d0005a0:	0b40093a 	j	9d0024e8 <.LFE0>
9d0005a4:	00000000 	nop

Disassembly of section .vector_30:

9d0005c0 <__vector_dispatch_30>:
9d0005c0:	0b40093a 	j	9d0024e8 <.LFE0>
9d0005c4:	00000000 	nop

Disassembly of section .vector_31:

9d0005e0 <__vector_dispatch_31>:
9d0005e0:	0b40093a 	j	9d0024e8 <.LFE0>
9d0005e4:	00000000 	nop

Disassembly of section .vector_32:

9d000600 <__vector_dispatch_32>:
9d000600:	0b40093a 	j	9d0024e8 <.LFE0>
9d000604:	00000000 	nop

Disassembly of section .vector_33:

9d000620 <__vector_dispatch_33>:
9d000620:	0b40093a 	j	9d0024e8 <.LFE0>
9d000624:	00000000 	nop

Disassembly of section .vector_34:

9d000640 <__vector_dispatch_34>:
9d000640:	0b40093a 	j	9d0024e8 <.LFE0>
9d000644:	00000000 	nop

Disassembly of section .vector_35:

9d000660 <__vector_dispatch_35>:
9d000660:	0b40093a 	j	9d0024e8 <.LFE0>
9d000664:	00000000 	nop

Disassembly of section .vector_36:

9d000680 <__vector_dispatch_36>:
9d000680:	0b40093a 	j	9d0024e8 <.LFE0>
9d000684:	00000000 	nop

Disassembly of section .vector_37:

9d0006a0 <__vector_dispatch_37>:
9d0006a0:	0b40093a 	j	9d0024e8 <.LFE0>
9d0006a4:	00000000 	nop

Disassembly of section .vector_38:

9d0006c0 <__vector_dispatch_38>:
9d0006c0:	0b40093a 	j	9d0024e8 <.LFE0>
9d0006c4:	00000000 	nop

Disassembly of section .vector_39:

9d0006e0 <__vector_dispatch_39>:
9d0006e0:	0b40093a 	j	9d0024e8 <.LFE0>
9d0006e4:	00000000 	nop

Disassembly of section .vector_40:

9d000700 <__vector_dispatch_40>:
9d000700:	0b40093a 	j	9d0024e8 <.LFE0>
9d000704:	00000000 	nop

Disassembly of section .vector_41:

9d000720 <__vector_dispatch_41>:
9d000720:	0b40093a 	j	9d0024e8 <.LFE0>
9d000724:	00000000 	nop

Disassembly of section .vector_42:

9d000740 <__vector_dispatch_42>:
9d000740:	0b40093a 	j	9d0024e8 <.LFE0>
9d000744:	00000000 	nop

Disassembly of section .vector_43:

9d000760 <__vector_dispatch_43>:
9d000760:	0b40093a 	j	9d0024e8 <.LFE0>
9d000764:	00000000 	nop

Disassembly of section .vector_44:

9d000780 <__vector_dispatch_44>:
9d000780:	0b40093a 	j	9d0024e8 <.LFE0>
9d000784:	00000000 	nop

Disassembly of section .vector_45:

9d0007a0 <__vector_dispatch_45>:
9d0007a0:	0b40093a 	j	9d0024e8 <.LFE0>
9d0007a4:	00000000 	nop

Disassembly of section .vector_46:

9d0007c0 <__vector_dispatch_46>:
9d0007c0:	0b40093a 	j	9d0024e8 <.LFE0>
9d0007c4:	00000000 	nop

Disassembly of section .vector_47:

9d0007e0 <__vector_dispatch_47>:
9d0007e0:	0b40093a 	j	9d0024e8 <.LFE0>
9d0007e4:	00000000 	nop

Disassembly of section .vector_48:

9d000800 <__vector_dispatch_48>:
9d000800:	0b40093a 	j	9d0024e8 <.LFE0>
9d000804:	00000000 	nop

Disassembly of section .vector_49:

9d000820 <__vector_dispatch_49>:
9d000820:	0b40093a 	j	9d0024e8 <.LFE0>
9d000824:	00000000 	nop

Disassembly of section .vector_50:

9d000840 <__vector_dispatch_50>:
9d000840:	0b40093a 	j	9d0024e8 <.LFE0>
9d000844:	00000000 	nop

Disassembly of section .vector_51:

9d000860 <__vector_dispatch_51>:
9d000860:	0b40093a 	j	9d0024e8 <.LFE0>
9d000864:	00000000 	nop

Disassembly of section .text:

9d001e00 <deregister_tm_clones>:
9d001e00:	3c040000 	lui	a0,0x0
9d001e04:	24840000 	addiu	a0,a0,0
9d001e08:	3c020000 	lui	v0,0x0
9d001e0c:	24420003 	addiu	v0,v0,3
9d001e10:	00441023 	subu	v0,v0,a0
9d001e14:	2c420007 	sltiu	v0,v0,7
9d001e18:	10400003 	beqz	v0,9d001e28 <deregister_tm_clones+0x28>
9d001e1c:	3c190000 	lui	t9,0x0
9d001e20:	03e00008 	jr	ra
9d001e24:	00000000 	nop
9d001e28:	27390000 	addiu	t9,t9,0
9d001e2c:	1320fffc 	beqz	t9,9d001e20 <deregister_tm_clones+0x20>
9d001e30:	00000000 	nop
9d001e34:	03200008 	jr	t9
9d001e38:	00000000 	nop

9d001e3c <register_tm_clones>:
9d001e3c:	3c040000 	lui	a0,0x0
9d001e40:	24840000 	addiu	a0,a0,0
9d001e44:	3c020000 	lui	v0,0x0
9d001e48:	24420000 	addiu	v0,v0,0
9d001e4c:	00441023 	subu	v0,v0,a0
9d001e50:	00021083 	sra	v0,v0,0x2
9d001e54:	00021fc2 	srl	v1,v0,0x1f
9d001e58:	00621021 	addu	v0,v1,v0
9d001e5c:	00022843 	sra	a1,v0,0x1
9d001e60:	14a00003 	bnez	a1,9d001e70 <register_tm_clones+0x34>
9d001e64:	3c190000 	lui	t9,0x0
9d001e68:	03e00008 	jr	ra
9d001e6c:	00000000 	nop
9d001e70:	27390000 	addiu	t9,t9,0
9d001e74:	1320fffc 	beqz	t9,9d001e68 <register_tm_clones+0x2c>
9d001e78:	00000000 	nop
9d001e7c:	03200008 	jr	t9
9d001e80:	00000000 	nop

9d001e84 <__do_global_dtors_aux>:
9d001e84:	27bdffd8 	addiu	sp,sp,-40
9d001e88:	afbf0024 	sw	ra,36(sp)
9d001e8c:	afb30020 	sw	s3,32(sp)
9d001e90:	afb2001c 	sw	s2,28(sp)
9d001e94:	afb10018 	sw	s1,24(sp)
9d001e98:	afb00014 	sw	s0,20(sp)
9d001e9c:	3c13a000 	lui	s3,0xa000
9d001ea0:	92620008 	lbu	v0,8(s3)
9d001ea4:	14400026 	bnez	v0,9d001f40 <__do_global_dtors_aux+0xbc>
9d001ea8:	3c10a000 	lui	s0,0xa000
9d001eac:	3c129d00 	lui	s2,0x9d00
9d001eb0:	265225e8 	addiu	s2,s2,9704
9d001eb4:	8e02000c 	lw	v0,12(s0)
9d001eb8:	3c119d00 	lui	s1,0x9d00
9d001ebc:	263125f0 	addiu	s1,s1,9712
9d001ec0:	02328823 	subu	s1,s1,s2
9d001ec4:	00118883 	sra	s1,s1,0x2
9d001ec8:	2631ffff 	addiu	s1,s1,-1
9d001ecc:	0051182b 	sltu	v1,v0,s1
9d001ed0:	1060000a 	beqz	v1,9d001efc <__do_global_dtors_aux+0x78>
9d001ed4:	24420001 	addiu	v0,v0,1
9d001ed8:	00021880 	sll	v1,v0,0x2
9d001edc:	02431821 	addu	v1,s2,v1
9d001ee0:	8c630000 	lw	v1,0(v1)
9d001ee4:	0060f809 	jalr	v1
9d001ee8:	ae02000c 	sw	v0,12(s0)
9d001eec:	8e02000c 	lw	v0,12(s0)
9d001ef0:	0051182b 	sltu	v1,v0,s1
9d001ef4:	1460fff8 	bnez	v1,9d001ed8 <__do_global_dtors_aux+0x54>
9d001ef8:	24420001 	addiu	v0,v0,1
9d001efc:	0f400780 	jal	9d001e00 <deregister_tm_clones>
9d001f00:	00000000 	nop
9d001f04:	3c020000 	lui	v0,0x0
9d001f08:	24420000 	addiu	v0,v0,0
9d001f0c:	10400013 	beqz	v0,9d001f5c <__do_global_dtors_aux+0xd8>
9d001f10:	3c020000 	lui	v0,0x0
9d001f14:	24440000 	addiu	a0,v0,0
9d001f18:	50800011 	beqzl	a0,9d001f60 <__do_global_dtors_aux+0xdc>
9d001f1c:	3c020000 	lui	v0,0x0
9d001f20:	80420000 	lb	v0,0(v0)
9d001f24:	28420002 	slti	v0,v0,2
9d001f28:	1440000d 	bnez	v0,9d001f60 <__do_global_dtors_aux+0xdc>
9d001f2c:	3c020000 	lui	v0,0x0
9d001f30:	0c000000 	jal	90000000 <_bmxdudba_address+0x8ffe0000>
9d001f34:	00000000 	nop
9d001f38:	24020001 	li	v0,1
9d001f3c:	a2620008 	sb	v0,8(s3)
9d001f40:	8fbf0024 	lw	ra,36(sp)
9d001f44:	8fb30020 	lw	s3,32(sp)
9d001f48:	8fb2001c 	lw	s2,28(sp)
9d001f4c:	8fb10018 	lw	s1,24(sp)
9d001f50:	8fb00014 	lw	s0,20(sp)
9d001f54:	03e00008 	jr	ra
9d001f58:	27bd0028 	addiu	sp,sp,40
9d001f5c:	3c020000 	lui	v0,0x0
9d001f60:	24420000 	addiu	v0,v0,0
9d001f64:	1040fff4 	beqz	v0,9d001f38 <__do_global_dtors_aux+0xb4>
9d001f68:	3c04a000 	lui	a0,0xa000
9d001f6c:	0c000000 	jal	90000000 <_bmxdudba_address+0x8ffe0000>
9d001f70:	24840000 	addiu	a0,a0,0
9d001f74:	0b4007cf 	j	9d001f3c <__do_global_dtors_aux+0xb8>
9d001f78:	24020001 	li	v0,1

9d001f7c <frame_dummy>:
9d001f7c:	27bdffe8 	addiu	sp,sp,-24
9d001f80:	3c020000 	lui	v0,0x0
9d001f84:	24420000 	addiu	v0,v0,0
9d001f88:	1040001a 	beqz	v0,9d001ff4 <frame_dummy+0x78>
9d001f8c:	afbf0014 	sw	ra,20(sp)
9d001f90:	3c020000 	lui	v0,0x0
9d001f94:	24440000 	addiu	a0,v0,0
9d001f98:	50800017 	beqzl	a0,9d001ff8 <frame_dummy+0x7c>
9d001f9c:	3c020000 	lui	v0,0x0
9d001fa0:	80420000 	lb	v0,0(v0)
9d001fa4:	28420002 	slti	v0,v0,2
9d001fa8:	14400012 	bnez	v0,9d001ff4 <frame_dummy+0x78>
9d001fac:	3c05a000 	lui	a1,0xa000
9d001fb0:	24a50010 	addiu	a1,a1,16
9d001fb4:	00003021 	move	a2,zero
9d001fb8:	3c07a001 	lui	a3,0xa001
9d001fbc:	0c000000 	jal	90000000 <_bmxdudba_address+0x8ffe0000>
9d001fc0:	24e78000 	addiu	a3,a3,-32768
9d001fc4:	3c040000 	lui	a0,0x0
9d001fc8:	8c820000 	lw	v0,0(a0)
9d001fcc:	10400006 	beqz	v0,9d001fe8 <frame_dummy+0x6c>
9d001fd0:	3c020000 	lui	v0,0x0
9d001fd4:	24420000 	addiu	v0,v0,0
9d001fd8:	10400004 	beqz	v0,9d001fec <frame_dummy+0x70>
9d001fdc:	8fbf0014 	lw	ra,20(sp)
9d001fe0:	0040f809 	jalr	v0
9d001fe4:	24840000 	addiu	a0,a0,0
9d001fe8:	8fbf0014 	lw	ra,20(sp)
9d001fec:	0b40078f 	j	9d001e3c <register_tm_clones>
9d001ff0:	27bd0018 	addiu	sp,sp,24
9d001ff4:	3c020000 	lui	v0,0x0
9d001ff8:	24420000 	addiu	v0,v0,0
9d001ffc:	1040fff1 	beqz	v0,9d001fc4 <frame_dummy+0x48>
9d002000:	3c04a000 	lui	a0,0xa000
9d002004:	24840000 	addiu	a0,a0,0
9d002008:	3c05a000 	lui	a1,0xa000
9d00200c:	24a50010 	addiu	a1,a1,16
9d002010:	00003021 	move	a2,zero
9d002014:	3c07a001 	lui	a3,0xa001
9d002018:	0c000000 	jal	90000000 <_bmxdudba_address+0x8ffe0000>
9d00201c:	24e78000 	addiu	a3,a3,-32768
9d002020:	0b4007f2 	j	9d001fc8 <frame_dummy+0x4c>
9d002024:	3c040000 	lui	a0,0x0

9d002028 <NU32_Startup>:

// Perform startup routines:
//  Make NU32_LED1 and NU32_LED2 pins outputs (NU32_USER is by default an input)
//  Initialize the serial port - UART3 (no interrupt) 
//  Enable interrupts
void NU32_Startup() {
9d002028:	27bdfff8 	addiu	sp,sp,-8
9d00202c:	afbf0004 	sw	ra,4(sp)
  // disable interrupts
  __builtin_disable_interrupts();
9d002030:	41626000 	di	v0
9d002034:	000000c0 	ehb
  // see Chapter 2 "CPU for Devices with M4K Core" of the PIC32 reference manual
  // most of the other bits have prescribed values
  // microchip does not provide a _CP0_SET_CONFIG macro, so we directly use
  // the compiler built-in command _mtc0
  // to disable cache, use 0xa4210582 
  __builtin_mtc0(_CP0_CONFIG, _CP0_CONFIG_SELECT, 0xa4210583); 
9d002038:	3c02a421 	lui	v0,0xa421
9d00203c:	24420583 	addiu	v0,v0,1411
9d002040:	40828000 	mtc0	v0,c0_config
9d002044:	000000c0 	ehb
  
  // set the prefectch cache wait state to 2, as per the
  // electrical characteristics data sheet
  CHECONbits.PFMWS = 0x2;   
9d002048:	3c02bf88 	lui	v0,0xbf88
9d00204c:	8c434000 	lw	v1,16384(v0)
9d002050:	24050002 	li	a1,2
9d002054:	7ca31004 	ins	v1,a1,0x0,0x3
9d002058:	ac434000 	sw	v1,16384(v0)

  //enable prefetch for cacheable and noncacheable memory
  CHECONbits.PREFEN = 0x3; 
9d00205c:	8c434000 	lw	v1,16384(v0)
9d002060:	24040003 	li	a0,3
9d002064:	7c832904 	ins	v1,a0,0x4,0x2
9d002068:	ac434000 	sw	v1,16384(v0)

  // 0 data RAM access wait states
  BMXCONbits.BMXWSDRM = 0x0;
9d00206c:	3c02bf88 	lui	v0,0xbf88
9d002070:	8c432000 	lw	v1,8192(v0)
9d002074:	7c033184 	ins	v1,zero,0x6,0x1
9d002078:	ac432000 	sw	v1,8192(v0)
  
  // enable multi vector interrupts
  INTCONbits.MVEC = 0x1;
9d00207c:	3c02bf88 	lui	v0,0xbf88
9d002080:	8c461000 	lw	a2,4096(v0)
9d002084:	24030001 	li	v1,1
9d002088:	7c666304 	ins	a2,v1,0xc,0x1
9d00208c:	ac461000 	sw	a2,4096(v0)

  // disable JTAG to get B10, B11, B12 and B13 back
  DDPCONbits.JTAGEN = 0;
9d002090:	3c02bf81 	lui	v0,0xbf81
9d002094:	9046f200 	lbu	a2,-3584(v0)
9d002098:	7c0618c4 	ins	a2,zero,0x3,0x1
9d00209c:	a046f200 	sb	a2,-3584(v0)

  TRISFCLR = 0x0003;  // Make F0 and F1 outputs (LED1 and LED2)
9d0020a0:	3c02bf88 	lui	v0,0xbf88
9d0020a4:	ac446144 	sw	a0,24900(v0)
  NU32_LED1 = 1;      // LED1 is off
9d0020a8:	3c02bf88 	lui	v0,0xbf88
9d0020ac:	90446160 	lbu	a0,24928(v0)
9d0020b0:	7c640004 	ins	a0,v1,0x0,0x1
9d0020b4:	a0446160 	sb	a0,24928(v0)
  NU32_LED2 = 0;      // LED2 is on
9d0020b8:	90446160 	lbu	a0,24928(v0)
9d0020bc:	7c040844 	ins	a0,zero,0x1,0x1
9d0020c0:	a0446160 	sb	a0,24928(v0)

  // turn on UART3 without an interrupt
  U3MODEbits.BRGH = 0; // set baud to NU32_DESIRED_BAUD
9d0020c4:	3c02bf80 	lui	v0,0xbf80
9d0020c8:	94446400 	lhu	a0,25600(v0)
9d0020cc:	7c0418c4 	ins	a0,zero,0x3,0x1
9d0020d0:	a4446400 	sh	a0,25600(v0)
  U3BRG = ((NU32_SYS_FREQ / NU32_DESIRED_BAUD) / 16) - 1;
9d0020d4:	24060014 	li	a2,20
9d0020d8:	3c04bf80 	lui	a0,0xbf80
9d0020dc:	ac866440 	sw	a2,25664(a0)

  // 8 bit, no parity bit, and 1 stop bit (8N1 setup)
  U3MODEbits.PDSEL = 0;
9d0020e0:	94446400 	lhu	a0,25600(v0)
9d0020e4:	7c041044 	ins	a0,zero,0x1,0x2
9d0020e8:	a4446400 	sh	a0,25600(v0)
  U3MODEbits.STSEL = 0;
9d0020ec:	94446400 	lhu	a0,25600(v0)
9d0020f0:	7c040004 	ins	a0,zero,0x0,0x1
9d0020f4:	a4446400 	sh	a0,25600(v0)

  // configure TX & RX pins as output & input pins
  U3STAbits.UTXEN = 1;
9d0020f8:	3c04bf80 	lui	a0,0xbf80
9d0020fc:	8c866410 	lw	a2,25616(a0)
9d002100:	7c665284 	ins	a2,v1,0xa,0x1
9d002104:	ac866410 	sw	a2,25616(a0)
  U3STAbits.URXEN = 1;
9d002108:	8c866410 	lw	a2,25616(a0)
9d00210c:	7c666304 	ins	a2,v1,0xc,0x1
9d002110:	ac866410 	sw	a2,25616(a0)
  // configure hardware flow control using RTS and CTS
  U3MODEbits.UEN = 2;
9d002114:	94446400 	lhu	a0,25600(v0)
9d002118:	7ca44a04 	ins	a0,a1,0x8,0x2
9d00211c:	a4446400 	sh	a0,25600(v0)

  // enable the uart
  U3MODEbits.ON = 1;
9d002120:	94446400 	lhu	a0,25600(v0)
9d002124:	7c647bc4 	ins	a0,v1,0xf,0x1
9d002128:	a4446400 	sh	a0,25600(v0)

  __builtin_enable_interrupts();
9d00212c:	41626020 	ei	v0
}
9d002130:	8fbf0004 	lw	ra,4(sp)
9d002134:	03e00008 	jr	ra
9d002138:	27bd0008 	addiu	sp,sp,8

9d00213c <NU32_ReadUART3>:
// Read from UART3
// block other functions until you get a '\r' or '\n'
// send the pointer to your char array and the number of elements in the array
void NU32_ReadUART3(char * message, int maxLength) {
  char data = 0;
  int complete = 0, num_bytes = 0;
9d00213c:	00003021 	move	a2,zero
  // loop until you get a '\r' or '\n'
  while (!complete) {
    if (U3STAbits.URXDA) { // if data is available
9d002140:	3c03bf80 	lui	v1,0xbf80
      data = U3RXREG;      // read the data
9d002144:	3c08bf80 	lui	t0,0xbf80
      if ((data == '\n') || (data == '\r')) {
9d002148:	2407000a 	li	a3,10
9d00214c:	0b400863 	j	9d00218c <NU32_ReadUART3+0x50>
9d002150:	2409000d 	li	t1,13
void NU32_ReadUART3(char * message, int maxLength) {
  char data = 0;
  int complete = 0, num_bytes = 0;
  // loop until you get a '\r' or '\n'
  while (!complete) {
    if (U3STAbits.URXDA) { // if data is available
9d002154:	8c626410 	lw	v0,25616(v1)
9d002158:	30420001 	andi	v0,v0,0x1
9d00215c:	1040fffd 	beqz	v0,9d002154 <NU32_ReadUART3+0x18>
9d002160:	00000000 	nop
      data = U3RXREG;      // read the data
9d002164:	8d026430 	lw	v0,25648(t0)
9d002168:	7c021420 	seb	v0,v0
      if ((data == '\n') || (data == '\r')) {
9d00216c:	5047000e 	beql	v0,a3,9d0021a8 <NU32_ReadUART3+0x6c>
9d002170:	00862021 	addu	a0,a0,a2
9d002174:	1049000b 	beq	v0,t1,9d0021a4 <NU32_ReadUART3+0x68>
9d002178:	00865021 	addu	t2,a0,a2
        complete = 1;
      } else {
        message[num_bytes] = data;
9d00217c:	a1420000 	sb	v0,0(t2)
        ++num_bytes;
9d002180:	24c60001 	addiu	a2,a2,1
        // roll over if the array is too small
        if (num_bytes >= maxLength) {
9d002184:	00c5102a 	slt	v0,a2,a1
          num_bytes = 0;
9d002188:	0002300a 	movz	a2,zero,v0
void NU32_ReadUART3(char * message, int maxLength) {
  char data = 0;
  int complete = 0, num_bytes = 0;
  // loop until you get a '\r' or '\n'
  while (!complete) {
    if (U3STAbits.URXDA) { // if data is available
9d00218c:	8c626410 	lw	v0,25616(v1)
9d002190:	30420001 	andi	v0,v0,0x1
9d002194:	1040ffef 	beqz	v0,9d002154 <NU32_ReadUART3+0x18>
9d002198:	00000000 	nop
9d00219c:	0b400859 	j	9d002164 <NU32_ReadUART3+0x28>
9d0021a0:	00000000 	nop
        }
      }
    }
  }
  // end the string
  message[num_bytes] = '\0';
9d0021a4:	00862021 	addu	a0,a0,a2
9d0021a8:	03e00008 	jr	ra
9d0021ac:	a0800000 	sb	zero,0(a0)

9d0021b0 <NU32_WriteUART3>:
}

// Write a character array using UART3
void NU32_WriteUART3(const char * string) {
  while (*string != '\0') {
9d0021b0:	80850000 	lb	a1,0(a0)
9d0021b4:	10a0000b 	beqz	a1,9d0021e4 <NU32_WriteUART3+0x34>
9d0021b8:	3c03bf80 	lui	v1,0xbf80
    while (U3STAbits.UTXBF) {
      ; // wait until tx buffer isn't full
    }
    U3TXREG = *string;
9d0021bc:	3c06bf80 	lui	a2,0xbf80
}

// Write a character array using UART3
void NU32_WriteUART3(const char * string) {
  while (*string != '\0') {
    while (U3STAbits.UTXBF) {
9d0021c0:	8c626410 	lw	v0,25616(v1)
9d0021c4:	30420200 	andi	v0,v0,0x200
9d0021c8:	1440fffd 	bnez	v0,9d0021c0 <NU32_WriteUART3+0x10>
9d0021cc:	00000000 	nop
      ; // wait until tx buffer isn't full
    }
    U3TXREG = *string;
9d0021d0:	acc56420 	sw	a1,25632(a2)
    ++string;
9d0021d4:	24840001 	addiu	a0,a0,1
  message[num_bytes] = '\0';
}

// Write a character array using UART3
void NU32_WriteUART3(const char * string) {
  while (*string != '\0') {
9d0021d8:	80850000 	lb	a1,0(a0)
9d0021dc:	14a0fff8 	bnez	a1,9d0021c0 <NU32_WriteUART3+0x10>
9d0021e0:	00000000 	nop
9d0021e4:	03e00008 	jr	ra
9d0021e8:	00000000 	nop

Disassembly of section .text.general_exception:

9d0021ec <_general_exception_context>:
9d0021ec:	27bdffa8 	addiu	sp,sp,-88
9d0021f0:	afa10004 	sw	at,4(sp)
9d0021f4:	afa20008 	sw	v0,8(sp)
9d0021f8:	afa3000c 	sw	v1,12(sp)
9d0021fc:	afa40010 	sw	a0,16(sp)
9d002200:	afa50014 	sw	a1,20(sp)
9d002204:	afa60018 	sw	a2,24(sp)
9d002208:	afa7001c 	sw	a3,28(sp)
9d00220c:	afa80020 	sw	t0,32(sp)
9d002210:	afa90024 	sw	t1,36(sp)
9d002214:	afaa0028 	sw	t2,40(sp)
9d002218:	afab002c 	sw	t3,44(sp)
9d00221c:	afac0030 	sw	t4,48(sp)
9d002220:	afad0034 	sw	t5,52(sp)
9d002224:	afae0038 	sw	t6,56(sp)
9d002228:	afaf003c 	sw	t7,60(sp)
9d00222c:	afb80040 	sw	t8,64(sp)
9d002230:	afb90044 	sw	t9,68(sp)
9d002234:	afbf0048 	sw	ra,72(sp)
9d002238:	00004012 	mflo	t0
9d00223c:	afa8004c 	sw	t0,76(sp)
9d002240:	00004010 	mfhi	t0
9d002244:	afa80050 	sw	t0,80(sp)
9d002248:	3c1a9d00 	lui	k0,0x9d00
9d00224c:	275a24a0 	addiu	k0,k0,9376
9d002250:	00000000 	nop
9d002254:	40046800 	mfc0	a0,c0_cause
9d002258:	40056000 	mfc0	a1,c0_status
9d00225c:	0340f809 	jalr	k0
9d002260:	00000000 	nop
9d002264:	8fa80050 	lw	t0,80(sp)
9d002268:	01000011 	mthi	t0
9d00226c:	8fa8004c 	lw	t0,76(sp)
9d002270:	01000013 	mtlo	t0
9d002274:	8fa10004 	lw	at,4(sp)
9d002278:	8fa20008 	lw	v0,8(sp)
9d00227c:	8fa3000c 	lw	v1,12(sp)
9d002280:	8fa40010 	lw	a0,16(sp)
9d002284:	8fa50014 	lw	a1,20(sp)
9d002288:	8fa60018 	lw	a2,24(sp)
9d00228c:	8fa7001c 	lw	a3,28(sp)
9d002290:	8fa80020 	lw	t0,32(sp)
9d002294:	8fa90024 	lw	t1,36(sp)
9d002298:	8faa0028 	lw	t2,40(sp)
9d00229c:	8fab002c 	lw	t3,44(sp)
9d0022a0:	8fac0030 	lw	t4,48(sp)
9d0022a4:	8fad0034 	lw	t5,52(sp)
9d0022a8:	8fae0038 	lw	t6,56(sp)
9d0022ac:	8faf003c 	lw	t7,60(sp)
9d0022b0:	8fb80040 	lw	t8,64(sp)
9d0022b4:	8fb90044 	lw	t9,68(sp)
9d0022b8:	8fbf0048 	lw	ra,72(sp)
9d0022bc:	27bd0058 	addiu	sp,sp,88
9d0022c0:	000000c0 	ehb
9d0022c4:	42000018 	eret

Disassembly of section .text:

9d0022c8 <__pic32_data_init>:
9d0022c8:	03e01821 	move	v1,ra

9d0022cc <_dinit_init>:
9d0022cc:	3c089d00 	lui	t0,0x9d00
9d0022d0:	2508234c 	addiu	t0,t0,9036
9d0022d4:	8d090000 	lw	t1,0(t0)
9d0022d8:	11200018 	beqz	t1,9d00233c <_dinit_end+0x18>
9d0022dc:	25080004 	addiu	t0,t0,4
9d0022e0:	8d0a0000 	lw	t2,0(t0)
9d0022e4:	25080004 	addiu	t0,t0,4
9d0022e8:	8d0b0000 	lw	t3,0(t0)
9d0022ec:	11600009 	beqz	t3,9d002314 <_dinit_clear>
9d0022f0:	25080004 	addiu	t0,t0,4

9d0022f4 <_dinit_copy>:
9d0022f4:	910c0000 	lbu	t4,0(t0)
9d0022f8:	254affff 	addiu	t2,t2,-1
9d0022fc:	25080001 	addiu	t0,t0,1
9d002300:	a12c0000 	sb	t4,0(t1)
9d002304:	1540fffb 	bnez	t2,9d0022f4 <_dinit_copy>
9d002308:	25290001 	addiu	t1,t1,1
9d00230c:	10000005 	b	9d002324 <_dinit_end>
9d002310:	00000000 	nop

9d002314 <_dinit_clear>:
9d002314:	a1200000 	sb	zero,0(t1)
9d002318:	254affff 	addiu	t2,t2,-1
9d00231c:	1540fffd 	bnez	t2,9d002314 <_dinit_clear>
9d002320:	25290001 	addiu	t1,t1,1

9d002324 <_dinit_end>:
9d002324:	25080003 	addiu	t0,t0,3
9d002328:	240afffc 	li	t2,-4
9d00232c:	01484024 	and	t0,t2,t0
9d002330:	8d090000 	lw	t1,0(t0)
9d002334:	1520ffe7 	bnez	t1,9d0022d4 <_dinit_init+0x8>
9d002338:	00000000 	nop
9d00233c:	0060f821 	move	ra,v1
9d002340:	03e00008 	jr	ra
9d002344:	00000000 	nop
9d002348:	00000000 	nop

Disassembly of section .dinit:

9d00234c <.dinit>:
9d00234c:	a0000028 	sb	zero,40(zero)
9d002350:	00000004 	sllv	zero,zero,zero
9d002354:	00000001 	movf	zero,zero,$fcc0
9d002358:	00000000 	nop
9d00235c:	a0000008 	sb	zero,8(zero)
9d002360:	00000020 	add	zero,zero,zero
9d002364:	00000000 	nop
9d002368:	a0000004 	sb	zero,4(zero)
9d00236c:	00000004 	sllv	zero,zero,zero
9d002370:	00000001 	movf	zero,zero,$fcc0
9d002374:	00000000 	nop
9d002378:	a000002c 	sb	zero,44(zero)
9d00237c:	00000004 	sllv	zero,zero,zero
9d002380:	00000001 	movf	zero,zero,$fcc0
9d002384:	00000000 	nop
9d002388:	a0000000 	sb	zero,0(zero)
9d00238c:	00000004 	sllv	zero,zero,zero
9d002390:	00000001 	movf	zero,zero,$fcc0
9d002394:	00000000 	nop
9d002398:	a0000030 	sb	zero,48(zero)
9d00239c:	00000004 	sllv	zero,zero,zero
9d0023a0:	00000001 	movf	zero,zero,$fcc0
	...

Disassembly of section .text:

9d0023ac <__do_global_ctors_aux>:
9d0023ac:	3c029d00 	lui	v0,0x9d00
9d0023b0:	8c4225e8 	lw	v0,9704(v0)
9d0023b4:	2403ffff 	li	v1,-1
9d0023b8:	10430010 	beq	v0,v1,9d0023fc <__do_global_ctors_aux+0x50>
9d0023bc:	00000000 	nop
9d0023c0:	27bdffe0 	addiu	sp,sp,-32
9d0023c4:	afbf001c 	sw	ra,28(sp)
9d0023c8:	afb10018 	sw	s1,24(sp)
9d0023cc:	afb00014 	sw	s0,20(sp)
9d0023d0:	3c109d00 	lui	s0,0x9d00
9d0023d4:	261025e4 	addiu	s0,s0,9700
9d0023d8:	2411ffff 	li	s1,-1
9d0023dc:	0040f809 	jalr	v0
9d0023e0:	2610fffc 	addiu	s0,s0,-4
9d0023e4:	8e020004 	lw	v0,4(s0)
9d0023e8:	1451fffc 	bne	v0,s1,9d0023dc <__do_global_ctors_aux+0x30>
9d0023ec:	8fbf001c 	lw	ra,28(sp)
9d0023f0:	8fb10018 	lw	s1,24(sp)
9d0023f4:	8fb00014 	lw	s0,20(sp)
9d0023f8:	27bd0020 	addiu	sp,sp,32
9d0023fc:	03e00008 	jr	ra
9d002400:	00000000 	nop

Disassembly of section .text.main_entry:

9d002404 <_main_entry>:
9d002404:	3c049d00 	lui	a0,0x9d00
9d002408:	27bdffe8 	addiu	sp,sp,-24
9d00240c:	248425a4 	addiu	a0,a0,9636
9d002410:	10800003 	beqz	a0,9d002420 <_main_entry+0x1c>
9d002414:	afbf0014 	sw	ra,20(sp)
9d002418:	0080f809 	jalr	a0
9d00241c:	00000000 	nop
9d002420:	30840000 	andi	a0,a0,0x0
9d002424:	30a50000 	andi	a1,a1,0x0
9d002428:	3c089d00 	lui	t0,0x9d00
9d00242c:	250825d4 	addiu	t0,t0,9684
9d002430:	0100f809 	jalr	t0
9d002434:	00000000 	nop

9d002438 <__crt0_exit>:
9d002438:	3c020000 24420000 10400003 00000000     ...<..B$..@.....
9d002448:	0040f809 00000000 1000fff9 00000000     ..@.............

Disassembly of section .text._bootstrap_exception_handler:

9d002458 <_bootstrap_exception_handler>:
9d002458:	3c020000 	lui	v0,0x0
9d00245c:	24420000 	addiu	v0,v0,0
9d002460:	10400005 	beqz	v0,9d002478 <_bootstrap_exception_handler+0x20>
9d002464:	3c020000 	lui	v0,0x0
9d002468:	24420000 	addiu	v0,v0,0
9d00246c:	10400003 	beqz	v0,9d00247c <_bootstrap_exception_handler+0x24>
9d002470:	3c029d00 	lui	v0,0x9d00
9d002474:	7000003f 	sdbbp
9d002478:	3c029d00 	lui	v0,0x9d00
9d00247c:	24422530 	addiu	v0,v0,9520
9d002480:	10400005 	beqz	v0,9d002498 <.LCFI2>
9d002484:	00000000 	nop
9d002488:	27bdffe8 	addiu	sp,sp,-24

9d00248c <.LCFI0>:
9d00248c:	afbf0014 	sw	ra,20(sp)
9d002490:	0040f809 	jalr	v0
9d002494:	00000000 	nop

9d002498 <.LCFI2>:
9d002498:	0b400926 	j	9d002498 <.LCFI2>
9d00249c:	00000000 	nop

Disassembly of section .text._general_exception_handler:

9d0024a0 <_general_exception_handler>:
9d0024a0:	3c020000 	lui	v0,0x0
9d0024a4:	24420000 	addiu	v0,v0,0
9d0024a8:	10400005 	beqz	v0,9d0024c0 <_general_exception_handler+0x20>
9d0024ac:	3c020000 	lui	v0,0x0
9d0024b0:	24420000 	addiu	v0,v0,0
9d0024b4:	10400003 	beqz	v0,9d0024c4 <_general_exception_handler+0x24>
9d0024b8:	3c029d00 	lui	v0,0x9d00
9d0024bc:	7000003f 	sdbbp
9d0024c0:	3c029d00 	lui	v0,0x9d00
9d0024c4:	24422530 	addiu	v0,v0,9520
9d0024c8:	10400005 	beqz	v0,9d0024e0 <.LCFI2>
9d0024cc:	00000000 	nop
9d0024d0:	27bdffe8 	addiu	sp,sp,-24

9d0024d4 <.LCFI0>:
9d0024d4:	afbf0014 	sw	ra,20(sp)
9d0024d8:	0040f809 	jalr	v0
9d0024dc:	00000000 	nop

9d0024e0 <.LCFI2>:
9d0024e0:	0b400938 	j	9d0024e0 <.LCFI2>
9d0024e4:	00000000 	nop

Disassembly of section .vector_default:

9d0024e8 <_DefaultInterrupt>:
9d0024e8:	3c020000 	lui	v0,0x0
9d0024ec:	24420000 	addiu	v0,v0,0
9d0024f0:	10400007 	beqz	v0,9d002510 <_DefaultInterrupt+0x28>
9d0024f4:	3c020000 	lui	v0,0x0
9d0024f8:	24420000 	addiu	v0,v0,0
9d0024fc:	50400005 	beqzl	v0,9d002514 <_DefaultInterrupt+0x2c>
9d002500:	3c029d00 	lui	v0,0x9d00
9d002504:	7000003f 	sdbbp
9d002508:	03e00008 	jr	ra
9d00250c:	00000000 	nop
9d002510:	3c029d00 	lui	v0,0x9d00
9d002514:	24422530 	addiu	v0,v0,9520
9d002518:	10400003 	beqz	v0,9d002528 <_DefaultInterrupt+0x40>
9d00251c:	00000000 	nop
9d002520:	0040f809 	jalr	v0
9d002524:	00000000 	nop
9d002528:	03e00008 	jr	ra
9d00252c:	00000000 	nop

Disassembly of section .text:

9d002530 <__pic32_software_reset>:
9d002530:	41606000 	di
9d002534:	000000c0 	ehb
9d002538:	3c03aa99 	lui	v1,0xaa99
9d00253c:	3c02bf81 	lui	v0,0xbf81
9d002540:	24636655 	addiu	v1,v1,26197
9d002544:	ac40f230 	sw	zero,-3536(v0)
9d002548:	ac43f230 	sw	v1,-3536(v0)
9d00254c:	3c035566 	lui	v1,0x5566
9d002550:	346399aa 	ori	v1,v1,0x99aa
9d002554:	ac43f230 	sw	v1,-3536(v0)
9d002558:	3c02bf81 	lui	v0,0xbf81
9d00255c:	24030001 	li	v1,1
9d002560:	ac43f618 	sw	v1,-2536(v0)
9d002564:	3c02bf81 	lui	v0,0xbf81
9d002568:	8c42f610 	lw	v0,-2544(v0)
9d00256c:	0b40094e 	j	9d002538 <__pic32_software_reset+0x8>
9d002570:	00000000 	nop

9d002574 <_nmi_handler>:
9d002574:	401a6000 	mfc0	k0,c0_status
9d002578:	3c1bffbf 	lui	k1,0xffbf
9d00257c:	377bffff 	ori	k1,k1,0xffff
9d002580:	035bd024 	and	k0,k0,k1
9d002584:	409a6000 	mtc0	k0,c0_status
9d002588:	42000018 	eret

Disassembly of section .init:

9d00258c <init>:
9d00258c:	8fbf0014 	lw	ra,20(sp)
9d002590:	03e00008 	jr	ra
9d002594:	27bd0020 	addiu	sp,sp,32

Disassembly of section .fini:

9d002598 <fini>:
9d002598:	8fbf0014 	lw	ra,20(sp)
9d00259c:	03e00008 	jr	ra
9d0025a0:	27bd0020 	addiu	sp,sp,32

Disassembly of section .init:

9d0025a4 <_init>:
9d0025a4:	27bdffe0 	addiu	sp,sp,-32
9d0025a8:	afbf0014 	sw	ra,20(sp)

Disassembly of section .fini:

9d0025ac <_fini>:
9d0025ac:	27bdffe0 	addiu	sp,sp,-32
9d0025b0:	afbf0014 	sw	ra,20(sp)
9d0025b4:	0f4007a1 	jal	9d001e84 <__do_global_dtors_aux>
9d0025b8:	00000000 	nop

Disassembly of section .init:

9d0025bc <.init>:
9d0025bc:	0f4007df 	jal	9d001f7c <frame_dummy>
9d0025c0:	00000000 	nop

Disassembly of section .text._on_reset:

9d0025c4 <_on_reset>:
9d0025c4:	03e00008 	jr	ra
9d0025c8:	00000000 	nop

Disassembly of section .text._on_bootstrap:

9d0025cc <_on_bootstrap>:
9d0025cc:	03e00008 	jr	ra
9d0025d0:	00000000 	nop

Disassembly of section .text.main:

9d0025d4 <main>:
9d0025d4:	03e00008 	jr	ra
9d0025d8:	00001021 	move	v0,zero

Disassembly of section .init:

9d0025dc <.init>:
9d0025dc:	0f4008eb 	jal	9d0023ac <__do_global_ctors_aux>
9d0025e0:	00000000 	nop

Disassembly of section .ctors:

9d0025e4 <__CTOR_LIST__>:
9d0025e4:	ffffffff                                ....

Disassembly of section .dtors:

9d0025e8 <__DTOR_LIST__>:
9d0025e8:	ffffffff                                ....

Disassembly of section .ctors:

9d0025ec <__CTOR_END__>:
9d0025ec:	00000000                                ....

Disassembly of section .dtors:

9d0025f0 <__DTOR_END__>:
9d0025f0:	00000000                                ....
