
out.elf:     file format elf32-tradlittlemips


Disassembly of section .config_BFC02FF0:

bfc02ff0 <__config_BFC02FF0>:
bfc02ff0:	ff ff fe fa                                         ....

Disassembly of section .config_BFC02FF4:

bfc02ff4 <__config_BFC02FF4>:
bfc02ff4:	d9 79 f8 ff                                         .y..

Disassembly of section .config_BFC02FF8:

bfc02ff8 <__config_BFC02FF8>:
bfc02ff8:	db ce 6c ff                                         ..l.

Disassembly of section .config_BFC02FFC:

bfc02ffc <__config_BFC02FFC>:
bfc02ffc:	ff ff ff 7e                                         ...~

Disassembly of section .reset:

bd001970 <_reset>:
bd001970:	0f40065e 	jal	bd001978 <_startup>
bd001974:	00000000 	nop

bd001978 <_startup>:
bd001978:	401a6000 	mfc0	k0,c0_status
bd00197c:	7f5a04c0 	ext	k0,k0,0x13,0x1
bd001980:	13400005 	beqz	k0,bd001998 <_no_nmi>
bd001984:	00000000 	nop
bd001988:	3c1a9d00 	lui	k0,0x9d00
bd00198c:	275a6484 	addiu	k0,k0,25732
bd001990:	03400008 	jr	k0
bd001994:	00000000 	nop

bd001998 <_no_nmi>:
bd001998:	3c1da002 	lui	sp,0xa002
bd00199c:	27bdfff8 	addiu	sp,sp,-8
bd0019a0:	3c1ca000 	lui	gp,0xa000
bd0019a4:	279c7ff0 	addiu	gp,gp,32752
bd0019a8:	40096002 	mfc0	t1,c0_srsctl
bd0019ac:	01205820 	add	t3,t1,zero
bd0019b0:	7d2a1e80 	ext	t2,t1,0x1a,0x4
bd0019b4:	7d494984 	ins	t1,t2,0x6,0x4
bd0019b8:	40896002 	mtc0	t1,c0_srsctl
bd0019bc:	000000c0 	ehb
bd0019c0:	41dce000 	wrpgpr	gp,gp
bd0019c4:	408b6002 	mtc0	t3,c0_srsctl
bd0019c8:	000000c0 	ehb
bd0019cc:	3c089d00 	lui	t0,0x9d00
bd0019d0:	250864d8 	addiu	t0,t0,25816
bd0019d4:	0100f809 	jalr	t0
bd0019d8:	00000000 	nop

bd0019dc <_start_bss_init>:
bd0019dc:	3c08a000 	lui	t0,0xa000
bd0019e0:	25080008 	addiu	t0,t0,8
bd0019e4:	3c09a000 	lui	t1,0xa000
bd0019e8:	2529000c 	addiu	t1,t1,12
bd0019ec:	10000003 	b	bd0019fc <_bss_check>
bd0019f0:	00000000 	nop

bd0019f4 <_bss_init>:
bd0019f4:	ad000000 	sw	zero,0(t0)
bd0019f8:	25080004 	addiu	t0,t0,4

bd0019fc <_bss_check>:
bd0019fc:	0109082b 	sltu	at,t0,t1
bd001a00:	1420fffc 	bnez	at,bd0019f4 <_bss_init>
bd001a04:	00000000 	nop
bd001a08:	3c089d00 	lui	t0,0x9d00
bd001a0c:	25085ef4 	addiu	t0,t0,24308
bd001a10:	0100f809 	jalr	t0
bd001a14:	00000000 	nop
bd001a18:	3c090000 	lui	t1,0x0
bd001a1c:	25290000 	addiu	t1,t1,0
bd001a20:	11200010 	beqz	t1,bd001a64 <_ramfunc_done>
bd001a24:	00000000 	nop
bd001a28:	3c090002 	lui	t1,0x2
bd001a2c:	25290000 	addiu	t1,t1,0
bd001a30:	3c0abf88 	lui	t2,0xbf88
bd001a34:	254a2010 	addiu	t2,t2,8208
bd001a38:	ad490000 	sw	t1,0(t2)
bd001a3c:	3c090002 	lui	t1,0x2
bd001a40:	25290000 	addiu	t1,t1,0
bd001a44:	3c0abf88 	lui	t2,0xbf88
bd001a48:	254a2020 	addiu	t2,t2,8224
bd001a4c:	ad490000 	sw	t1,0(t2)
bd001a50:	3c090002 	lui	t1,0x2
bd001a54:	25290000 	addiu	t1,t1,0
bd001a58:	3c0abf88 	lui	t2,0xbf88
bd001a5c:	254a2030 	addiu	t2,t2,8240
bd001a60:	ad490000 	sw	t1,0(t2)

bd001a64 <_ramfunc_done>:
bd001a64:	40804800 	mtc0	zero,c0_count
bd001a68:	240affff 	li	t2,-1
bd001a6c:	408a5800 	mtc0	t2,c0_compare
bd001a70:	3c080040 	lui	t0,0x40
bd001a74:	400a6000 	mfc0	t2,c0_status
bd001a78:	010a5025 	or	t2,t0,t2
bd001a7c:	408a6000 	mtc0	t2,c0_status
bd001a80:	3c099d00 	lui	t1,0x9d00
bd001a84:	25290000 	addiu	t1,t1,0
bd001a88:	000000c0 	ehb
bd001a8c:	40897801 	mtc0	t1,c0_ebase
bd001a90:	3c090000 	lui	t1,0x0
bd001a94:	25290001 	addiu	t1,t1,1
bd001a98:	240a0000 	li	t2,0
bd001a9c:	7d2a4944 	ins	t2,t1,0x5,0x5
bd001aa0:	408a6001 	mtc0	t2,c0_intctl
bd001aa4:	3c090080 	lui	t1,0x80
bd001aa8:	40896800 	mtc0	t1,c0_cause
bd001aac:	40088000 	mfc0	t0,c0_config
bd001ab0:	7d090580 	ext	t1,t0,0x16,0x1
bd001ab4:	00094c40 	sll	t1,t1,0x11
bd001ab8:	40086000 	mfc0	t0,c0_status
bd001abc:	3c010058 	lui	at,0x58
bd001ac0:	01014024 	and	t0,t0,at
bd001ac4:	01284025 	or	t0,t1,t0
bd001ac8:	40886000 	mtc0	t0,c0_status
bd001acc:	000000c0 	ehb
bd001ad0:	3c089d00 	lui	t0,0x9d00
bd001ad4:	250864e0 	addiu	t0,t0,25824
bd001ad8:	0100f809 	jalr	t0
bd001adc:	00000000 	nop
bd001ae0:	40086000 	mfc0	t0,c0_status
bd001ae4:	3c01ffbf 	lui	at,0xffbf
bd001ae8:	3421ffff 	ori	at,at,0xffff
bd001aec:	01014024 	and	t0,t0,at
bd001af0:	40886000 	mtc0	t0,c0_status
bd001af4:	30840000 	andi	a0,a0,0x0
bd001af8:	30a50000 	andi	a1,a1,0x0
bd001afc:	3c089d00 	lui	t0,0x9d00
bd001b00:	250861c8 	addiu	t0,t0,25032
bd001b04:	01000008 	jr	t0
bd001b08:	00000000 	nop

Disassembly of section .bev_excpt:

bd001cf0 <_bev_exception>:
bd001cf0:	3c1a9d00 	lui	k0,0x9d00
bd001cf4:	275a6268 	addiu	k0,k0,25192
bd001cf8:	03400008 	jr	k0
bd001cfc:	00000000 	nop

Disassembly of section .app_excpt:

9d000180 <_gen_exception>:
9d000180:	3c1a9d00 	lui	k0,0x9d00
9d000184:	275a59f8 	addiu	k0,k0,23032
9d000188:	03400008 	jr	k0
9d00018c:	00000000 	nop

Disassembly of section .vector_0:

9d000200 <__vector_dispatch_0>:
9d000200:	0b4018be 	j	9d0062f8 <.LFE0>
9d000204:	00000000 	nop

Disassembly of section .vector_1:

9d000220 <__vector_dispatch_1>:
9d000220:	0b4018be 	j	9d0062f8 <.LFE0>
9d000224:	00000000 	nop

Disassembly of section .vector_2:

9d000240 <__vector_dispatch_2>:
9d000240:	0b4018be 	j	9d0062f8 <.LFE0>
9d000244:	00000000 	nop

Disassembly of section .vector_3:

9d000260 <__vector_dispatch_3>:
9d000260:	0b4018be 	j	9d0062f8 <.LFE0>
9d000264:	00000000 	nop

Disassembly of section .vector_4:

9d000280 <__vector_dispatch_4>:
9d000280:	0b4018be 	j	9d0062f8 <.LFE0>
9d000284:	00000000 	nop

Disassembly of section .vector_5:

9d0002a0 <__vector_dispatch_5>:
9d0002a0:	0b4018be 	j	9d0062f8 <.LFE0>
9d0002a4:	00000000 	nop

Disassembly of section .vector_6:

9d0002c0 <__vector_dispatch_6>:
9d0002c0:	0b4018be 	j	9d0062f8 <.LFE0>
9d0002c4:	00000000 	nop

Disassembly of section .vector_7:

9d0002e0 <__vector_dispatch_7>:
9d0002e0:	0b4018be 	j	9d0062f8 <.LFE0>
9d0002e4:	00000000 	nop

Disassembly of section .vector_8:

9d000300 <__vector_dispatch_8>:
9d000300:	0b4018be 	j	9d0062f8 <.LFE0>
9d000304:	00000000 	nop

Disassembly of section .vector_9:

9d000320 <__vector_dispatch_9>:
9d000320:	0b4018be 	j	9d0062f8 <.LFE0>
9d000324:	00000000 	nop

Disassembly of section .vector_10:

9d000340 <__vector_dispatch_10>:
9d000340:	0b4018be 	j	9d0062f8 <.LFE0>
9d000344:	00000000 	nop

Disassembly of section .vector_11:

9d000360 <__vector_dispatch_11>:
9d000360:	0b4018be 	j	9d0062f8 <.LFE0>
9d000364:	00000000 	nop

Disassembly of section .vector_12:

9d000380 <__vector_dispatch_12>:
9d000380:	0b4018be 	j	9d0062f8 <.LFE0>
9d000384:	00000000 	nop

Disassembly of section .vector_13:

9d0003a0 <__vector_dispatch_13>:
9d0003a0:	0b4018be 	j	9d0062f8 <.LFE0>
9d0003a4:	00000000 	nop

Disassembly of section .vector_14:

9d0003c0 <__vector_dispatch_14>:
9d0003c0:	0b4018be 	j	9d0062f8 <.LFE0>
9d0003c4:	00000000 	nop

Disassembly of section .vector_15:

9d0003e0 <__vector_dispatch_15>:
9d0003e0:	0b4018be 	j	9d0062f8 <.LFE0>
9d0003e4:	00000000 	nop

Disassembly of section .vector_16:

9d000400 <__vector_dispatch_16>:
9d000400:	0b4018be 	j	9d0062f8 <.LFE0>
9d000404:	00000000 	nop

Disassembly of section .vector_17:

9d000420 <__vector_dispatch_17>:
9d000420:	0b4018be 	j	9d0062f8 <.LFE0>
9d000424:	00000000 	nop

Disassembly of section .vector_18:

9d000440 <__vector_dispatch_18>:
9d000440:	0b4018be 	j	9d0062f8 <.LFE0>
9d000444:	00000000 	nop

Disassembly of section .vector_19:

9d000460 <__vector_dispatch_19>:
9d000460:	0b4018be 	j	9d0062f8 <.LFE0>
9d000464:	00000000 	nop

Disassembly of section .vector_20:

9d000480 <__vector_dispatch_20>:
9d000480:	0b4018be 	j	9d0062f8 <.LFE0>
9d000484:	00000000 	nop

Disassembly of section .vector_21:

9d0004a0 <__vector_dispatch_21>:
9d0004a0:	0b4018be 	j	9d0062f8 <.LFE0>
9d0004a4:	00000000 	nop

Disassembly of section .vector_22:

9d0004c0 <__vector_dispatch_22>:
9d0004c0:	0b4018be 	j	9d0062f8 <.LFE0>
9d0004c4:	00000000 	nop

Disassembly of section .vector_23:

9d0004e0 <__vector_dispatch_23>:
9d0004e0:	0b4018be 	j	9d0062f8 <.LFE0>
9d0004e4:	00000000 	nop

Disassembly of section .vector_24:

9d000500 <__vector_dispatch_24>:
9d000500:	0b4018be 	j	9d0062f8 <.LFE0>
9d000504:	00000000 	nop

Disassembly of section .vector_25:

9d000520 <__vector_dispatch_25>:
9d000520:	0b4018be 	j	9d0062f8 <.LFE0>
9d000524:	00000000 	nop

Disassembly of section .vector_26:

9d000540 <__vector_dispatch_26>:
9d000540:	0b4018be 	j	9d0062f8 <.LFE0>
9d000544:	00000000 	nop

Disassembly of section .vector_27:

9d000560 <__vector_dispatch_27>:
9d000560:	0b4018be 	j	9d0062f8 <.LFE0>
9d000564:	00000000 	nop

Disassembly of section .vector_28:

9d000580 <__vector_dispatch_28>:
9d000580:	0b4018be 	j	9d0062f8 <.LFE0>
9d000584:	00000000 	nop

Disassembly of section .vector_29:

9d0005a0 <__vector_dispatch_29>:
9d0005a0:	0b4018be 	j	9d0062f8 <.LFE0>
9d0005a4:	00000000 	nop

Disassembly of section .vector_30:

9d0005c0 <__vector_dispatch_30>:
9d0005c0:	0b4018be 	j	9d0062f8 <.LFE0>
9d0005c4:	00000000 	nop

Disassembly of section .vector_31:

9d0005e0 <__vector_dispatch_31>:
9d0005e0:	0b4018be 	j	9d0062f8 <.LFE0>
9d0005e4:	00000000 	nop

Disassembly of section .vector_32:

9d000600 <__vector_dispatch_32>:
9d000600:	0b4018be 	j	9d0062f8 <.LFE0>
9d000604:	00000000 	nop

Disassembly of section .vector_33:

9d000620 <__vector_dispatch_33>:
9d000620:	0b4018be 	j	9d0062f8 <.LFE0>
9d000624:	00000000 	nop

Disassembly of section .vector_34:

9d000640 <__vector_dispatch_34>:
9d000640:	0b4018be 	j	9d0062f8 <.LFE0>
9d000644:	00000000 	nop

Disassembly of section .vector_35:

9d000660 <__vector_dispatch_35>:
9d000660:	0b4018be 	j	9d0062f8 <.LFE0>
9d000664:	00000000 	nop

Disassembly of section .vector_36:

9d000680 <__vector_dispatch_36>:
9d000680:	0b4018be 	j	9d0062f8 <.LFE0>
9d000684:	00000000 	nop

Disassembly of section .vector_37:

9d0006a0 <__vector_dispatch_37>:
9d0006a0:	0b4018be 	j	9d0062f8 <.LFE0>
9d0006a4:	00000000 	nop

Disassembly of section .vector_38:

9d0006c0 <__vector_dispatch_38>:
9d0006c0:	0b4018be 	j	9d0062f8 <.LFE0>
9d0006c4:	00000000 	nop

Disassembly of section .vector_39:

9d0006e0 <__vector_dispatch_39>:
9d0006e0:	0b4018be 	j	9d0062f8 <.LFE0>
9d0006e4:	00000000 	nop

Disassembly of section .vector_40:

9d000700 <__vector_dispatch_40>:
9d000700:	0b4018be 	j	9d0062f8 <.LFE0>
9d000704:	00000000 	nop

Disassembly of section .vector_41:

9d000720 <__vector_dispatch_41>:
9d000720:	0b4018be 	j	9d0062f8 <.LFE0>
9d000724:	00000000 	nop

Disassembly of section .vector_42:

9d000740 <__vector_dispatch_42>:
9d000740:	0b4018be 	j	9d0062f8 <.LFE0>
9d000744:	00000000 	nop

Disassembly of section .vector_43:

9d000760 <__vector_dispatch_43>:
9d000760:	0b4018be 	j	9d0062f8 <.LFE0>
9d000764:	00000000 	nop

Disassembly of section .vector_44:

9d000780 <__vector_dispatch_44>:
9d000780:	0b4018be 	j	9d0062f8 <.LFE0>
9d000784:	00000000 	nop

Disassembly of section .vector_45:

9d0007a0 <__vector_dispatch_45>:
9d0007a0:	0b4018be 	j	9d0062f8 <.LFE0>
9d0007a4:	00000000 	nop

Disassembly of section .vector_46:

9d0007c0 <__vector_dispatch_46>:
9d0007c0:	0b4018be 	j	9d0062f8 <.LFE0>
9d0007c4:	00000000 	nop

Disassembly of section .vector_47:

9d0007e0 <__vector_dispatch_47>:
9d0007e0:	0b4018be 	j	9d0062f8 <.LFE0>
9d0007e4:	00000000 	nop

Disassembly of section .vector_48:

9d000800 <__vector_dispatch_48>:
9d000800:	0b4018be 	j	9d0062f8 <.LFE0>
9d000804:	00000000 	nop

Disassembly of section .vector_49:

9d000820 <__vector_dispatch_49>:
9d000820:	0b4018be 	j	9d0062f8 <.LFE0>
9d000824:	00000000 	nop

Disassembly of section .vector_50:

9d000840 <__vector_dispatch_50>:
9d000840:	0b4018be 	j	9d0062f8 <.LFE0>
9d000844:	00000000 	nop

Disassembly of section .vector_51:

9d000860 <__vector_dispatch_51>:
9d000860:	0b4018be 	j	9d0062f8 <.LFE0>
9d000864:	00000000 	nop

Disassembly of section ._debug_exception:

bfc00480 <__DbgExecReturn>:
bfc00480:	409bf800 	mtc0	k1,c0_desave
bfc00484:	000000c0 	ehb
bfc00488:	3c1b9d00 	lui	k1,0x9d00
bfc0048c:	277b6340 	addiu	k1,k1,25408
bfc00490:	13600002 	beqz	k1,bfc0049c <__DbgExecReturn+0x1c>
bfc00494:	00000000 	nop
bfc00498:	409bc000 	mtc0	k1,c0_depc
bfc0049c:	401bf800 	mfc0	k1,c0_desave
bfc004a0:	000000c0 	ehb
bfc004a4:	4200001f 	deret
bfc004a8:	00000000 	nop

Disassembly of section .text._do_print_cdfFnopuxX:

9d001e00 <_do_print_cdfFnopuxX>:
9d001e00:	27bdff58 	addiu	sp,sp,-168
9d001e04:	afbf00a4 	sw	ra,164(sp)
9d001e08:	afbe00a0 	sw	s8,160(sp)
9d001e0c:	afb7009c 	sw	s7,156(sp)
9d001e10:	afb60098 	sw	s6,152(sp)
9d001e14:	afb50094 	sw	s5,148(sp)
9d001e18:	afb40090 	sw	s4,144(sp)
9d001e1c:	afb3008c 	sw	s3,140(sp)
9d001e20:	afb20088 	sw	s2,136(sp)
9d001e24:	afb10084 	sw	s1,132(sp)
9d001e28:	afb00080 	sw	s0,128(sp)
9d001e2c:	afa400a8 	sw	a0,168(sp)
9d001e30:	8c820018 	lw	v0,24(a0)
9d001e34:	00a09021 	move	s2,a1
9d001e38:	24050001 	li	a1,1
9d001e3c:	8c420010 	lw	v0,16(v0)
9d001e40:	0040f809 	jalr	v0
9d001e44:	afa600b0 	sw	a2,176(sp)
9d001e48:	104001a5 	beqz	v0,9d0024e0 <_do_print_cdfFnopuxX+0x6e0>
9d001e4c:	27a20058 	addiu	v0,sp,88
9d001e50:	afa00068 	sw	zero,104(sp)
9d001e54:	afa20060 	sw	v0,96(sp)
9d001e58:	82440000 	lb	a0,0(s2)
9d001e5c:	1080000d 	beqz	a0,9d001e94 <_do_print_cdfFnopuxX+0x94>
9d001e60:	26500001 	addiu	s0,s2,1
9d001e64:	24020025 	li	v0,37
9d001e68:	5082001c 	beql	a0,v0,9d001edc <_do_print_cdfFnopuxX+0xdc>
9d001e6c:	82460001 	lb	a2,1(s2)
9d001e70:	0f40171f 	jal	9d005c7c <.LFE0>
9d001e74:	8fa500a8 	lw	a1,168(sp)
9d001e78:	8fa30068 	lw	v1,104(sp)
9d001e7c:	24630001 	addiu	v1,v1,1
9d001e80:	afa30068 	sw	v1,104(sp)
9d001e84:	02009021 	move	s2,s0
9d001e88:	82440000 	lb	a0,0(s2)
9d001e8c:	1480fff5 	bnez	a0,9d001e64 <_do_print_cdfFnopuxX+0x64>
9d001e90:	26500001 	addiu	s0,s2,1
9d001e94:	8fa400a8 	lw	a0,168(sp)
9d001e98:	94820010 	lhu	v0,16(a0)
9d001e9c:	30420040 	andi	v0,v0,0x40
9d001ea0:	14400190 	bnez	v0,9d0024e4 <_do_print_cdfFnopuxX+0x6e4>
9d001ea4:	2402ffff 	li	v0,-1
9d001ea8:	8fa20068 	lw	v0,104(sp)
9d001eac:	8fbf00a4 	lw	ra,164(sp)
9d001eb0:	8fbe00a0 	lw	s8,160(sp)
9d001eb4:	8fb7009c 	lw	s7,156(sp)
9d001eb8:	8fb60098 	lw	s6,152(sp)
9d001ebc:	8fb50094 	lw	s5,148(sp)
9d001ec0:	8fb40090 	lw	s4,144(sp)
9d001ec4:	8fb3008c 	lw	s3,140(sp)
9d001ec8:	8fb20088 	lw	s2,136(sp)
9d001ecc:	8fb10084 	lw	s1,132(sp)
9d001ed0:	8fb00080 	lw	s0,128(sp)
9d001ed4:	03e00008 	jr	ra
9d001ed8:	27bd00a8 	addiu	sp,sp,168
9d001edc:	10c40174 	beq	a2,a0,9d0024b0 <_do_print_cdfFnopuxX+0x6b0>
9d001ee0:	0000b821 	move	s7,zero
9d001ee4:	2402002d 	li	v0,45
9d001ee8:	2403002b 	li	v1,43
9d001eec:	24040020 	li	a0,32
9d001ef0:	24050023 	li	a1,35
9d001ef4:	10c2000e 	beq	a2,v0,9d001f30 <_do_print_cdfFnopuxX+0x130>
9d001ef8:	24070030 	li	a3,48
9d001efc:	50c30010 	beql	a2,v1,9d001f40 <_do_print_cdfFnopuxX+0x140>
9d001f00:	36f70002 	ori	s7,s7,0x2
9d001f04:	50c40011 	beql	a2,a0,9d001f4c <_do_print_cdfFnopuxX+0x14c>
9d001f08:	36f70001 	ori	s7,s7,0x1
9d001f0c:	50c50012 	beql	a2,a1,9d001f58 <_do_print_cdfFnopuxX+0x158>
9d001f10:	36f70800 	ori	s7,s7,0x800
9d001f14:	54c70013 	bnel	a2,a3,9d001f64 <_do_print_cdfFnopuxX+0x164>
9d001f18:	2402002a 	li	v0,42
9d001f1c:	36f70004 	ori	s7,s7,0x4
9d001f20:	26100001 	addiu	s0,s0,1
9d001f24:	82060000 	lb	a2,0(s0)
9d001f28:	14c2fff4 	bne	a2,v0,9d001efc <_do_print_cdfFnopuxX+0xfc>
9d001f2c:	00000000 	nop
9d001f30:	36f70008 	ori	s7,s7,0x8
9d001f34:	26100001 	addiu	s0,s0,1
9d001f38:	0b4007ca 	j	9d001f28 <_do_print_cdfFnopuxX+0x128>
9d001f3c:	82060000 	lb	a2,0(s0)
9d001f40:	26100001 	addiu	s0,s0,1
9d001f44:	0b4007ca 	j	9d001f28 <_do_print_cdfFnopuxX+0x128>
9d001f48:	82060000 	lb	a2,0(s0)
9d001f4c:	26100001 	addiu	s0,s0,1
9d001f50:	0b4007ca 	j	9d001f28 <_do_print_cdfFnopuxX+0x128>
9d001f54:	82060000 	lb	a2,0(s0)
9d001f58:	26100001 	addiu	s0,s0,1
9d001f5c:	0b4007ca 	j	9d001f28 <_do_print_cdfFnopuxX+0x128>
9d001f60:	82060000 	lb	a2,0(s0)
9d001f64:	10c20141 	beq	a2,v0,9d00246c <_do_print_cdfFnopuxX+0x66c>
9d001f68:	02001821 	move	v1,s0
9d001f6c:	24c2ffd0 	addiu	v0,a2,-48
9d001f70:	2c42000a 	sltiu	v0,v0,10
9d001f74:	1040000b 	beqz	v0,9d001fa4 <_do_print_cdfFnopuxX+0x1a4>
9d001f78:	0000b021 	move	s6,zero
9d001f7c:	00161040 	sll	v0,s6,0x1
9d001f80:	001648c0 	sll	t1,s6,0x3
9d001f84:	00494821 	addu	t1,v0,t1
9d001f88:	26100001 	addiu	s0,s0,1
9d001f8c:	01264821 	addu	t1,t1,a2
9d001f90:	82060000 	lb	a2,0(s0)
9d001f94:	24c2ffd0 	addiu	v0,a2,-48
9d001f98:	2c42000a 	sltiu	v0,v0,10
9d001f9c:	1440fff7 	bnez	v0,9d001f7c <_do_print_cdfFnopuxX+0x17c>
9d001fa0:	2536ffd0 	addiu	s6,t1,-48
9d001fa4:	2402002e 	li	v0,46
9d001fa8:	10c2011c 	beq	a2,v0,9d00241c <_do_print_cdfFnopuxX+0x61c>
9d001fac:	241effff 	li	s8,-1
9d001fb0:	24020068 	li	v0,104
9d001fb4:	10c20107 	beq	a2,v0,9d0023d4 <_do_print_cdfFnopuxX+0x5d4>
9d001fb8:	2402006c 	li	v0,108
9d001fbc:	10c20135 	beq	a2,v0,9d002494 <_do_print_cdfFnopuxX+0x694>
9d001fc0:	24020071 	li	v0,113
9d001fc4:	10c20142 	beq	a2,v0,9d0024d0 <_do_print_cdfFnopuxX+0x6d0>
9d001fc8:	2402004c 	li	v0,76
9d001fcc:	50c201c9 	beql	a2,v0,9d0026f4 <_do_print_cdfFnopuxX+0x8f4>
9d001fd0:	82060001 	lb	a2,1(s0)
9d001fd4:	32e30002 	andi	v1,s7,0x2
9d001fd8:	32e2fffe 	andi	v0,s7,0xfffe
9d001fdc:	0043b80b 	movn	s7,v0,v1
9d001fe0:	24c2ffbc 	addiu	v0,a2,-68
9d001fe4:	32e50008 	andi	a1,s7,0x8
9d001fe8:	32e4fffb 	andi	a0,s7,0xfffb
9d001fec:	2c430035 	sltiu	v1,v0,53
9d001ff0:	26120001 	addiu	s2,s0,1
9d001ff4:	10600107 	beqz	v1,9d002414 <_do_print_cdfFnopuxX+0x614>
9d001ff8:	0085b80b 	movn	s7,a0,a1
9d001ffc:	00021080 	sll	v0,v0,0x2
9d002000:	3c049d00 	lui	a0,0x9d00
9d002004:	24842018 	addiu	a0,a0,8216
9d002008:	00821021 	addu	v0,a0,v0
9d00200c:	8c420000 	lw	v0,0(v0)
9d002010:	00400008 	jr	v0
9d002014:	00000000 	nop
9d002018:	9d0023c0 	0x9d0023c0
9d00201c:	9d002414 	0x9d002414
9d002020:	9d00237c 	0x9d00237c
9d002024:	9d002414 	0x9d002414
9d002028:	9d002414 	0x9d002414
9d00202c:	9d002414 	0x9d002414
9d002030:	9d002414 	0x9d002414
9d002034:	9d002414 	0x9d002414
9d002038:	9d002414 	0x9d002414
9d00203c:	9d002414 	0x9d002414
9d002040:	9d002414 	0x9d002414
9d002044:	9d002668 	0x9d002668
9d002048:	9d00236c 	0x9d00236c
9d00204c:	9d002414 	0x9d002414
9d002050:	9d002414 	0x9d002414
9d002054:	9d002414 	0x9d002414
9d002058:	9d002414 	0x9d002414
9d00205c:	9d0022a0 	0x9d0022a0
9d002060:	9d002414 	0x9d002414
9d002064:	9d002414 	0x9d002414
9d002068:	9d0020ec 	0x9d0020ec
9d00206c:	9d002414 	0x9d002414
9d002070:	9d002414 	0x9d002414
9d002074:	9d002414 	0x9d002414
9d002078:	9d002414 	0x9d002414
9d00207c:	9d002414 	0x9d002414
9d002080:	9d002414 	0x9d002414
9d002084:	9d002414 	0x9d002414
9d002088:	9d002414 	0x9d002414
9d00208c:	9d002414 	0x9d002414
9d002090:	9d002414 	0x9d002414
9d002094:	9d002604 	0x9d002604
9d002098:	9d0023c4 	0x9d0023c4
9d00209c:	9d002414 	0x9d002414
9d0020a0:	9d002380 	0x9d002380
9d0020a4:	9d002414 	0x9d002414
9d0020a8:	9d002414 	0x9d002414
9d0020ac:	9d0023c4 	0x9d0023c4
9d0020b0:	9d002414 	0x9d002414
9d0020b4:	9d002414 	0x9d002414
9d0020b8:	9d002414 	0x9d002414
9d0020bc:	9d002414 	0x9d002414
9d0020c0:	9d002548 	0x9d002548
9d0020c4:	9d002540 	0x9d002540
9d0020c8:	9d002370 	0x9d002370
9d0020cc:	9d002414 	0x9d002414
9d0020d0:	9d002414 	0x9d002414
9d0020d4:	9d002590 	0x9d002590
9d0020d8:	9d002414 	0x9d002414
9d0020dc:	9d0022a4 	0x9d0022a4
9d0020e0:	9d002414 	0x9d002414
9d0020e4:	9d002414 	0x9d002414
9d0020e8:	9d0020f0 	0x9d0020f0
9d0020ec:	36f70020 	ori	s7,s7,0x20
9d0020f0:	24100010 	li	s0,16
9d0020f4:	2402ffff 	li	v0,-1
9d0020f8:	13c2006f 	beq	s8,v0,9d0022b8 <_do_print_cdfFnopuxX+0x4b8>
9d0020fc:	00002821 	move	a1,zero
9d002100:	32f7fffb 	andi	s7,s7,0xfffb
9d002104:	27c5ffff 	addiu	a1,s8,-1
9d002108:	32e200c0 	andi	v0,s7,0xc0
9d00210c:	1040006e 	beqz	v0,9d0022c8 <_do_print_cdfFnopuxX+0x4c8>
9d002110:	afa2006c 	sw	v0,108(sp)
9d002114:	7c171620 	seh	v0,s7
9d002118:	04400180 	bltz	v0,9d00271c <_do_print_cdfFnopuxX+0x91c>
9d00211c:	32e20010 	andi	v0,s7,0x10
9d002120:	14400102 	bnez	v0,9d00252c <_do_print_cdfFnopuxX+0x72c>
9d002124:	8fa200b0 	lw	v0,176(sp)
9d002128:	32e20041 	andi	v0,s7,0x41
9d00212c:	104001a8 	beqz	v0,9d0027d0 <_do_print_cdfFnopuxX+0x9d0>
9d002130:	8fa400b0 	lw	a0,176(sp)
9d002134:	8fa300b0 	lw	v1,176(sp)
9d002138:	8c750000 	lw	s5,0(v1)
9d00213c:	24630004 	addiu	v1,v1,4
9d002140:	afa300b0 	sw	v1,176(sp)
9d002144:	0015a7c3 	sra	s4,s5,0x1f
9d002148:	0683006d 	bgezl	s4,9d002300 <_do_print_cdfFnopuxX+0x500>
9d00214c:	afa00074 	sw	zero,116(sp)
9d002150:	00156823 	negu	t5,s5
9d002154:	000d102b 	sltu	v0,zero,t5
9d002158:	00146023 	negu	t4,s4
9d00215c:	01a0a821 	move	s5,t5
9d002160:	0182a023 	subu	s4,t4,v0
9d002164:	24020001 	li	v0,1
9d002168:	12800067 	beqz	s4,9d002308 <_do_print_cdfFnopuxX+0x508>
9d00216c:	afa20074 	sw	v0,116(sp)
9d002170:	02b41025 	or	v0,s5,s4
9d002174:	104001ac 	beqz	v0,9d002828 <_do_print_cdfFnopuxX+0xa28>
9d002178:	27a20057 	addiu	v0,sp,87
9d00217c:	afa20070 	sw	v0,112(sp)
9d002180:	32e30020 	andi	v1,s7,0x20
9d002184:	24040037 	li	a0,55
9d002188:	00108fc3 	sra	s1,s0,0x1f
9d00218c:	00409821 	move	s3,v0
9d002190:	24020057 	li	v0,87
9d002194:	0043200a 	movz	a0,v0,v1
9d002198:	afa40064 	sw	a0,100(sp)
9d00219c:	02a02021 	move	a0,s5
9d0021a0:	02802821 	move	a1,s4
9d0021a4:	02003021 	move	a2,s0
9d0021a8:	0f400e5c 	jal	9d003970 <__umoddi3>
9d0021ac:	02203821 	move	a3,s1
9d0021b0:	2843000a 	slti	v1,v0,10
9d0021b4:	24460030 	addiu	a2,v0,48
9d0021b8:	8fa40064 	lw	a0,100(sp)
9d0021bc:	00441021 	addu	v0,v0,a0
9d0021c0:	0043300a 	movz	a2,v0,v1
9d0021c4:	2673ffff 	addiu	s3,s3,-1
9d0021c8:	02a02021 	move	a0,s5
9d0021cc:	02802821 	move	a1,s4
9d0021d0:	a2660001 	sb	a2,1(s3)
9d0021d4:	02003021 	move	a2,s0
9d0021d8:	0f400f75 	jal	9d003dd4 <__udivdi3>
9d0021dc:	02203821 	move	a3,s1
9d0021e0:	00622025 	or	a0,v1,v0
9d0021e4:	0040a821 	move	s5,v0
9d0021e8:	0060a021 	move	s4,v1
9d0021ec:	1480ffeb 	bnez	a0,9d00219c <_do_print_cdfFnopuxX+0x39c>
9d0021f0:	27deffff 	addiu	s8,s8,-1
9d0021f4:	27c5ffff 	addiu	a1,s8,-1
9d0021f8:	04a0000a 	bltz	a1,9d002224 <_do_print_cdfFnopuxX+0x424>
9d0021fc:	02601021 	move	v0,s3
9d002200:	2664ffff 	addiu	a0,s3,-1
9d002204:	00852023 	subu	a0,a0,a1
9d002208:	24030030 	li	v1,48
9d00220c:	a0430000 	sb	v1,0(v0)
9d002210:	2442ffff 	addiu	v0,v0,-1
9d002214:	5444fffe 	bnel	v0,a0,9d002210 <_do_print_cdfFnopuxX+0x410>
9d002218:	a0430000 	sb	v1,0(v0)
9d00221c:	00052827 	nor	a1,zero,a1
9d002220:	02659821 	addu	s3,s3,a1
9d002224:	32e20004 	andi	v0,s7,0x4
9d002228:	14400112 	bnez	v0,9d002674 <_do_print_cdfFnopuxX+0x874>
9d00222c:	32e40800 	andi	a0,s7,0x800
9d002230:	3084ffff 	andi	a0,a0,0xffff
9d002234:	50800007 	beqzl	a0,9d002254 <_do_print_cdfFnopuxX+0x454>
9d002238:	8fa3006c 	lw	v1,108(sp)
9d00223c:	24020008 	li	v0,8
9d002240:	1202012f 	beq	s0,v0,9d002700 <_do_print_cdfFnopuxX+0x900>
9d002244:	24020010 	li	v0,16
9d002248:	12020153 	beq	s0,v0,9d002798 <_do_print_cdfFnopuxX+0x998>
9d00224c:	32e40020 	andi	a0,s7,0x20
9d002250:	8fa3006c 	lw	v1,108(sp)
9d002254:	10600007 	beqz	v1,9d002274 <_do_print_cdfFnopuxX+0x474>
9d002258:	8fa40074 	lw	a0,116(sp)
9d00225c:	14800121 	bnez	a0,9d0026e4 <_do_print_cdfFnopuxX+0x8e4>
9d002260:	32e20002 	andi	v0,s7,0x2
9d002264:	10400003 	beqz	v0,9d002274 <_do_print_cdfFnopuxX+0x474>
9d002268:	2402002b 	li	v0,43
9d00226c:	a2620000 	sb	v0,0(s3)
9d002270:	2673ffff 	addiu	s3,s3,-1
9d002274:	26650001 	addiu	a1,s3,1
9d002278:	afb70010 	sw	s7,16(sp)
9d00227c:	8fa400a8 	lw	a0,168(sp)
9d002280:	8fa20060 	lw	v0,96(sp)
9d002284:	00453023 	subu	a2,v0,a1
9d002288:	0f40152f 	jal	9d0054bc <_outcnvrt>
9d00228c:	02c03821 	move	a3,s6
9d002290:	8fa30068 	lw	v1,104(sp)
9d002294:	00621821 	addu	v1,v1,v0
9d002298:	0b400796 	j	9d001e58 <_do_print_cdfFnopuxX+0x58>
9d00229c:	afa30068 	sw	v1,104(sp)
9d0022a0:	36f70010 	ori	s7,s7,0x10
9d0022a4:	32f7f7ff 	andi	s7,s7,0xf7ff
9d0022a8:	2402ffff 	li	v0,-1
9d0022ac:	17c2ff94 	bne	s8,v0,9d002100 <_do_print_cdfFnopuxX+0x300>
9d0022b0:	2410000a 	li	s0,10
9d0022b4:	00002821 	move	a1,zero
9d0022b8:	241e0001 	li	s8,1
9d0022bc:	32e200c0 	andi	v0,s7,0xc0
9d0022c0:	1440ff94 	bnez	v0,9d002114 <_do_print_cdfFnopuxX+0x314>
9d0022c4:	afa2006c 	sw	v0,108(sp)
9d0022c8:	7c171620 	seh	v0,s7
9d0022cc:	0440011b 	bltz	v0,9d00273c <_do_print_cdfFnopuxX+0x93c>
9d0022d0:	32e20010 	andi	v0,s7,0x10
9d0022d4:	1440008f 	bnez	v0,9d002514 <_do_print_cdfFnopuxX+0x714>
9d0022d8:	8fa200b0 	lw	v0,176(sp)
9d0022dc:	32e20041 	andi	v0,s7,0x41
9d0022e0:	10400135 	beqz	v0,9d0027b8 <_do_print_cdfFnopuxX+0x9b8>
9d0022e4:	8fa400b0 	lw	a0,176(sp)
9d0022e8:	8fa300b0 	lw	v1,176(sp)
9d0022ec:	8c750000 	lw	s5,0(v1)
9d0022f0:	0000a021 	move	s4,zero
9d0022f4:	24630004 	addiu	v1,v1,4
9d0022f8:	afa300b0 	sw	v1,176(sp)
9d0022fc:	afa00074 	sw	zero,116(sp)
9d002300:	1680ff9c 	bnez	s4,9d002174 <_do_print_cdfFnopuxX+0x374>
9d002304:	02b41025 	or	v0,s5,s4
9d002308:	12a0014b 	beqz	s5,9d002838 <_do_print_cdfFnopuxX+0xa38>
9d00230c:	02a06821 	move	t5,s5
9d002310:	27a40057 	addiu	a0,sp,87
9d002314:	afa40070 	sw	a0,112(sp)
9d002318:	32e30020 	andi	v1,s7,0x20
9d00231c:	24050037 	li	a1,55
9d002320:	00809821 	move	s3,a0
9d002324:	24020057 	li	v0,87
9d002328:	0043280a 	movz	a1,v0,v1
9d00232c:	01b0001b 	divu	zero,t5,s0
9d002330:	020001f4 	teq	s0,zero,0x7
9d002334:	00001810 	mfhi	v1
9d002338:	2673ffff 	addiu	s3,s3,-1
9d00233c:	27deffff 	addiu	s8,s8,-1
9d002340:	01b0001b 	divu	zero,t5,s0
9d002344:	020001f4 	teq	s0,zero,0x7
9d002348:	00006812 	mflo	t5
9d00234c:	2864000a 	slti	a0,v1,10
9d002350:	24620030 	addiu	v0,v1,48
9d002354:	00651821 	addu	v1,v1,a1
9d002358:	0064100a 	movz	v0,v1,a0
9d00235c:	15a0fff3 	bnez	t5,9d00232c <_do_print_cdfFnopuxX+0x52c>
9d002360:	a2620001 	sb	v0,1(s3)
9d002364:	0b40087e 	j	9d0021f8 <_do_print_cdfFnopuxX+0x3f8>
9d002368:	27c5ffff 	addiu	a1,s8,-1
9d00236c:	36f70020 	ori	s7,s7,0x20
9d002370:	36f70810 	ori	s7,s7,0x810
9d002374:	0b40083d 	j	9d0020f4 <_do_print_cdfFnopuxX+0x2f4>
9d002378:	24100010 	li	s0,16
9d00237c:	36f70020 	ori	s7,s7,0x20
9d002380:	32e20080 	andi	v0,s7,0x80
9d002384:	144000ac 	bnez	v0,9d002638 <_do_print_cdfFnopuxX+0x838>
9d002388:	36f00400 	ori	s0,s7,0x400
9d00238c:	8fa400b0 	lw	a0,176(sp)
9d002390:	8c820000 	lw	v0,0(a0)
9d002394:	24840004 	addiu	a0,a0,4
9d002398:	afa400b0 	sw	a0,176(sp)
9d00239c:	afa20058 	sw	v0,88(sp)
9d0023a0:	8fa50058 	lw	a1,88(sp)
9d0023a4:	afbe0010 	sw	s8,16(sp)
9d0023a8:	afb00014 	sw	s0,20(sp)
9d0023ac:	8fa400a8 	lw	a0,168(sp)
9d0023b0:	0f400bb6 	jal	9d002ed8 <.LFE5>
9d0023b4:	02c03821 	move	a3,s6
9d0023b8:	0b4008a5 	j	9d002294 <_do_print_cdfFnopuxX+0x494>
9d0023bc:	8fa30068 	lw	v1,104(sp)
9d0023c0:	36f70010 	ori	s7,s7,0x10
9d0023c4:	32e8f7ff 	andi	t0,s7,0xf7ff
9d0023c8:	351700c0 	ori	s7,t0,0xc0
9d0023cc:	0b40083d 	j	9d0020f4 <_do_print_cdfFnopuxX+0x2f4>
9d0023d0:	2410000a 	li	s0,10
9d0023d4:	82020001 	lb	v0,1(s0)
9d0023d8:	504600eb 	beql	v0,a2,9d002788 <_do_print_cdfFnopuxX+0x988>
9d0023dc:	82060002 	lb	a2,2(s0)
9d0023e0:	36f70040 	ori	s7,s7,0x40
9d0023e4:	00403021 	move	a2,v0
9d0023e8:	26100001 	addiu	s0,s0,1
9d0023ec:	32e30002 	andi	v1,s7,0x2
9d0023f0:	32e2fffe 	andi	v0,s7,0xfffe
9d0023f4:	0043b80b 	movn	s7,v0,v1
9d0023f8:	24c2ffbc 	addiu	v0,a2,-68
9d0023fc:	32e50008 	andi	a1,s7,0x8
9d002400:	32e4fffb 	andi	a0,s7,0xfffb
9d002404:	2c430035 	sltiu	v1,v0,53
9d002408:	26120001 	addiu	s2,s0,1
9d00240c:	1460fefb 	bnez	v1,9d001ffc <_do_print_cdfFnopuxX+0x1fc>
9d002410:	0085b80b 	movn	s7,a0,a1
9d002414:	0b4008a4 	j	9d002290 <_do_print_cdfFnopuxX+0x490>
9d002418:	00001021 	move	v0,zero
9d00241c:	82060001 	lb	a2,1(s0)
9d002420:	2402002a 	li	v0,42
9d002424:	10c200ce 	beq	a2,v0,9d002760 <_do_print_cdfFnopuxX+0x960>
9d002428:	24c2ffd0 	addiu	v0,a2,-48
9d00242c:	2c42000a 	sltiu	v0,v0,10
9d002430:	26100001 	addiu	s0,s0,1
9d002434:	1040fede 	beqz	v0,9d001fb0 <_do_print_cdfFnopuxX+0x1b0>
9d002438:	0000f021 	move	s8,zero
9d00243c:	001e1040 	sll	v0,s8,0x1
9d002440:	001e58c0 	sll	t3,s8,0x3
9d002444:	004b5821 	addu	t3,v0,t3
9d002448:	26100001 	addiu	s0,s0,1
9d00244c:	01665821 	addu	t3,t3,a2
9d002450:	82060000 	lb	a2,0(s0)
9d002454:	24c2ffd0 	addiu	v0,a2,-48
9d002458:	2c42000a 	sltiu	v0,v0,10
9d00245c:	1440fff7 	bnez	v0,9d00243c <_do_print_cdfFnopuxX+0x63c>
9d002460:	257effd0 	addiu	s8,t3,-48
9d002464:	0b4007ed 	j	9d001fb4 <_do_print_cdfFnopuxX+0x1b4>
9d002468:	24020068 	li	v0,104
9d00246c:	8fa200b0 	lw	v0,176(sp)
9d002470:	8c560000 	lw	s6,0(v0)
9d002474:	24550004 	addiu	s5,v0,4
9d002478:	26100001 	addiu	s0,s0,1
9d00247c:	06c10003 	bgez	s6,9d00248c <_do_print_cdfFnopuxX+0x68c>
9d002480:	80660001 	lb	a2,1(v1)
9d002484:	36f70008 	ori	s7,s7,0x8
9d002488:	0016b023 	negu	s6,s6
9d00248c:	0b4007e9 	j	9d001fa4 <_do_print_cdfFnopuxX+0x1a4>
9d002490:	afb500b0 	sw	s5,176(sp)
9d002494:	82020001 	lb	v0,1(s0)
9d002498:	504600d2 	beql	v0,a2,9d0027e4 <_do_print_cdfFnopuxX+0x9e4>
9d00249c:	82060002 	lb	a2,2(s0)
9d0024a0:	36f70010 	ori	s7,s7,0x10
9d0024a4:	00403021 	move	a2,v0
9d0024a8:	0b4008fb 	j	9d0023ec <_do_print_cdfFnopuxX+0x5ec>
9d0024ac:	26100001 	addiu	s0,s0,1
9d0024b0:	24040025 	li	a0,37
9d0024b4:	0f40171f 	jal	9d005c7c <.LFE0>
9d0024b8:	8fa500a8 	lw	a1,168(sp)
9d0024bc:	26520002 	addiu	s2,s2,2
9d0024c0:	8fa40068 	lw	a0,104(sp)
9d0024c4:	24840001 	addiu	a0,a0,1
9d0024c8:	0b400796 	j	9d001e58 <_do_print_cdfFnopuxX+0x58>
9d0024cc:	afa40068 	sw	a0,104(sp)
9d0024d0:	82060001 	lb	a2,1(s0)
9d0024d4:	36f78000 	ori	s7,s7,0x8000
9d0024d8:	0b4007f5 	j	9d001fd4 <_do_print_cdfFnopuxX+0x1d4>
9d0024dc:	26100001 	addiu	s0,s0,1
9d0024e0:	2402ffff 	li	v0,-1
9d0024e4:	8fbf00a4 	lw	ra,164(sp)
9d0024e8:	8fbe00a0 	lw	s8,160(sp)
9d0024ec:	8fb7009c 	lw	s7,156(sp)
9d0024f0:	8fb60098 	lw	s6,152(sp)
9d0024f4:	8fb50094 	lw	s5,148(sp)
9d0024f8:	8fb40090 	lw	s4,144(sp)
9d0024fc:	8fb3008c 	lw	s3,140(sp)
9d002500:	8fb20088 	lw	s2,136(sp)
9d002504:	8fb10084 	lw	s1,132(sp)
9d002508:	8fb00080 	lw	s0,128(sp)
9d00250c:	03e00008 	jr	ra
9d002510:	27bd00a8 	addiu	sp,sp,168
9d002514:	8c550000 	lw	s5,0(v0)
9d002518:	0000a021 	move	s4,zero
9d00251c:	24420004 	addiu	v0,v0,4
9d002520:	afa200b0 	sw	v0,176(sp)
9d002524:	0b4008c0 	j	9d002300 <_do_print_cdfFnopuxX+0x500>
9d002528:	afa00074 	sw	zero,116(sp)
9d00252c:	8c550000 	lw	s5,0(v0)
9d002530:	24420004 	addiu	v0,v0,4
9d002534:	afa200b0 	sw	v0,176(sp)
9d002538:	0b400852 	j	9d002148 <_do_print_cdfFnopuxX+0x348>
9d00253c:	0015a7c3 	sra	s4,s5,0x1f
9d002540:	0b40083d 	j	9d0020f4 <_do_print_cdfFnopuxX+0x2f4>
9d002544:	24100008 	li	s0,8
9d002548:	7c171620 	seh	v0,s7
9d00254c:	044000c2 	bltz	v0,9d002858 <_do_print_cdfFnopuxX+0xa58>
9d002550:	8fa400b0 	lw	a0,176(sp)
9d002554:	32e20010 	andi	v0,s7,0x10
9d002558:	144000ab 	bnez	v0,9d002808 <_do_print_cdfFnopuxX+0xa08>
9d00255c:	8fa200b0 	lw	v0,176(sp)
9d002560:	32e20040 	andi	v0,s7,0x40
9d002564:	104000c7 	beqz	v0,9d002884 <_do_print_cdfFnopuxX+0xa84>
9d002568:	32e80001 	andi	t0,s7,0x1
9d00256c:	8fa200b0 	lw	v0,176(sp)
9d002570:	8c430000 	lw	v1,0(v0)
9d002574:	00001021 	move	v0,zero
9d002578:	8fa400b0 	lw	a0,176(sp)
9d00257c:	24840004 	addiu	a0,a0,4
9d002580:	afa400b0 	sw	a0,176(sp)
9d002584:	8fa40068 	lw	a0,104(sp)
9d002588:	0b4008a4 	j	9d002290 <_do_print_cdfFnopuxX+0x490>
9d00258c:	a4640000 	sh	a0,0(v1)
9d002590:	8fa400b0 	lw	a0,176(sp)
9d002594:	8c900000 	lw	s0,0(a0)
9d002598:	3c039d00 	lui	v1,0x9d00
9d00259c:	24626174 	addiu	v0,v1,24948
9d0025a0:	0050800a 	movz	s0,v0,s0
9d0025a4:	2402ffff 	li	v0,-1
9d0025a8:	13c200a7 	beq	s8,v0,9d002848 <_do_print_cdfFnopuxX+0xa48>
9d0025ac:	24950004 	addiu	s5,a0,4
9d0025b0:	1bc00004 	blez	s8,9d0025c4 <_do_print_cdfFnopuxX+0x7c4>
9d0025b4:	021e5821 	addu	t3,s0,s8
9d0025b8:	82030000 	lb	v1,0(s0)
9d0025bc:	14600005 	bnez	v1,9d0025d4 <_do_print_cdfFnopuxX+0x7d4>
9d0025c0:	02001021 	move	v0,s0
9d0025c4:	0b400979 	j	9d0025e4 <_do_print_cdfFnopuxX+0x7e4>
9d0025c8:	00001021 	move	v0,zero
9d0025cc:	50600005 	beqzl	v1,9d0025e4 <_do_print_cdfFnopuxX+0x7e4>
9d0025d0:	00501023 	subu	v0,v0,s0
9d0025d4:	24420001 	addiu	v0,v0,1
9d0025d8:	544bfffc 	bnel	v0,t3,9d0025cc <_do_print_cdfFnopuxX+0x7cc>
9d0025dc:	80430000 	lb	v1,0(v0)
9d0025e0:	00501023 	subu	v0,v0,s0
9d0025e4:	afb70010 	sw	s7,16(sp)
9d0025e8:	8fa400a8 	lw	a0,168(sp)
9d0025ec:	02002821 	move	a1,s0
9d0025f0:	00403021 	move	a2,v0
9d0025f4:	0f40152f 	jal	9d0054bc <_outcnvrt>
9d0025f8:	02c03821 	move	a3,s6
9d0025fc:	0b4008a4 	j	9d002290 <_do_print_cdfFnopuxX+0x490>
9d002600:	afb500b0 	sw	s5,176(sp)
9d002604:	8fa300b0 	lw	v1,176(sp)
9d002608:	8c620000 	lw	v0,0(v1)
9d00260c:	24750004 	addiu	s5,v1,4
9d002610:	afb70010 	sw	s7,16(sp)
9d002614:	8fa400a8 	lw	a0,168(sp)
9d002618:	27a50018 	addiu	a1,sp,24
9d00261c:	24060001 	li	a2,1
9d002620:	02c03821 	move	a3,s6
9d002624:	a3a20018 	sb	v0,24(sp)
9d002628:	0f40152f 	jal	9d0054bc <_outcnvrt>
9d00262c:	afb500b0 	sw	s5,176(sp)
9d002630:	0b4008a5 	j	9d002294 <_do_print_cdfFnopuxX+0x494>
9d002634:	8fa30068 	lw	v1,104(sp)
9d002638:	8fa300b0 	lw	v1,176(sp)
9d00263c:	24750007 	addiu	s5,v1,7
9d002640:	7c151004 	ins	s5,zero,0x0,0x3
9d002644:	8ea40000 	lw	a0,0(s5)
9d002648:	8ea50004 	lw	a1,4(s5)
9d00264c:	26b50008 	addiu	s5,s5,8
9d002650:	afb500b0 	sw	s5,176(sp)
9d002654:	0f4015c6 	jal	9d005718 <__truncdfsf2>
9d002658:	afa60078 	sw	a2,120(sp)
9d00265c:	afa20058 	sw	v0,88(sp)
9d002660:	0b4008e8 	j	9d0023a0 <_do_print_cdfFnopuxX+0x5a0>
9d002664:	8fa60078 	lw	a2,120(sp)
9d002668:	36f70010 	ori	s7,s7,0x10
9d00266c:	0b40083d 	j	9d0020f4 <_do_print_cdfFnopuxX+0x2f4>
9d002670:	24100008 	li	s0,8
9d002674:	8fa20070 	lw	v0,112(sp)
9d002678:	02621823 	subu	v1,s3,v0
9d00267c:	3084ffff 	andi	a0,a0,0xffff
9d002680:	10800006 	beqz	a0,9d00269c <_do_print_cdfFnopuxX+0x89c>
9d002684:	02c31821 	addu	v1,s6,v1
9d002688:	24020008 	li	v0,8
9d00268c:	12020059 	beq	s0,v0,9d0027f4 <_do_print_cdfFnopuxX+0x9f4>
9d002690:	2462fffe 	addiu	v0,v1,-2
9d002694:	3a050010 	xori	a1,s0,0x10
9d002698:	0045180a 	movz	v1,v0,a1
9d00269c:	8fa2006c 	lw	v0,108(sp)
9d0026a0:	10400006 	beqz	v0,9d0026bc <_do_print_cdfFnopuxX+0x8bc>
9d0026a4:	8fa20074 	lw	v0,116(sp)
9d0026a8:	54400004 	bnezl	v0,9d0026bc <_do_print_cdfFnopuxX+0x8bc>
9d0026ac:	2463ffff 	addiu	v1,v1,-1
9d0026b0:	32e20003 	andi	v0,s7,0x3
9d0026b4:	54400001 	bnezl	v0,9d0026bc <_do_print_cdfFnopuxX+0x8bc>
9d0026b8:	2463ffff 	addiu	v1,v1,-1
9d0026bc:	1860fedd 	blez	v1,9d002234 <_do_print_cdfFnopuxX+0x434>
9d0026c0:	02601021 	move	v0,s3
9d0026c4:	02635023 	subu	t2,s3,v1
9d0026c8:	24030030 	li	v1,48
9d0026cc:	a0430000 	sb	v1,0(v0)
9d0026d0:	2442ffff 	addiu	v0,v0,-1
9d0026d4:	5542fffe 	bnel	t2,v0,9d0026d0 <_do_print_cdfFnopuxX+0x8d0>
9d0026d8:	a0430000 	sb	v1,0(v0)
9d0026dc:	0b40088d 	j	9d002234 <_do_print_cdfFnopuxX+0x434>
9d0026e0:	01409821 	move	s3,t2
9d0026e4:	2402002d 	li	v0,45
9d0026e8:	a2620000 	sb	v0,0(s3)
9d0026ec:	0b40089d 	j	9d002274 <_do_print_cdfFnopuxX+0x474>
9d0026f0:	2673ffff 	addiu	s3,s3,-1
9d0026f4:	36f70080 	ori	s7,s7,0x80
9d0026f8:	0b4008fb 	j	9d0023ec <_do_print_cdfFnopuxX+0x5ec>
9d0026fc:	26100001 	addiu	s0,s0,1
9d002700:	82630001 	lb	v1,1(s3)
9d002704:	24020030 	li	v0,48
9d002708:	1062fed2 	beq	v1,v0,9d002254 <_do_print_cdfFnopuxX+0x454>
9d00270c:	8fa3006c 	lw	v1,108(sp)
9d002710:	a2620000 	sb	v0,0(s3)
9d002714:	0b400894 	j	9d002250 <_do_print_cdfFnopuxX+0x450>
9d002718:	2673ffff 	addiu	s3,s3,-1
9d00271c:	8fa300b0 	lw	v1,176(sp)
9d002720:	24620007 	addiu	v0,v1,7
9d002724:	7c021004 	ins	v0,zero,0x0,0x3
9d002728:	24440008 	addiu	a0,v0,8
9d00272c:	afa400b0 	sw	a0,176(sp)
9d002730:	8c550000 	lw	s5,0(v0)
9d002734:	0b400852 	j	9d002148 <_do_print_cdfFnopuxX+0x348>
9d002738:	8c540004 	lw	s4,4(v0)
9d00273c:	8fa300b0 	lw	v1,176(sp)
9d002740:	24620007 	addiu	v0,v1,7
9d002744:	7c021004 	ins	v0,zero,0x0,0x3
9d002748:	24440008 	addiu	a0,v0,8
9d00274c:	afa400b0 	sw	a0,176(sp)
9d002750:	8c550000 	lw	s5,0(v0)
9d002754:	8c540004 	lw	s4,4(v0)
9d002758:	0b4008c0 	j	9d002300 <_do_print_cdfFnopuxX+0x500>
9d00275c:	afa00074 	sw	zero,116(sp)
9d002760:	8fa300b0 	lw	v1,176(sp)
9d002764:	8c7e0000 	lw	s8,0(v1)
9d002768:	24750004 	addiu	s5,v1,4
9d00276c:	26020002 	addiu	v0,s0,2
9d002770:	82060002 	lb	a2,2(s0)
9d002774:	afb500b0 	sw	s5,176(sp)
9d002778:	07c1fe0d 	bgez	s8,9d001fb0 <_do_print_cdfFnopuxX+0x1b0>
9d00277c:	00408021 	move	s0,v0
9d002780:	0b4007ec 	j	9d001fb0 <_do_print_cdfFnopuxX+0x1b0>
9d002784:	241effff 	li	s8,-1
9d002788:	36f70001 	ori	s7,s7,0x1
9d00278c:	26100001 	addiu	s0,s0,1
9d002790:	0b4008fb 	j	9d0023ec <_do_print_cdfFnopuxX+0x5ec>
9d002794:	26100001 	addiu	s0,s0,1
9d002798:	24020058 	li	v0,88
9d00279c:	24030078 	li	v1,120
9d0027a0:	0064100a 	movz	v0,v1,a0
9d0027a4:	a2620000 	sb	v0,0(s3)
9d0027a8:	24020030 	li	v0,48
9d0027ac:	a262ffff 	sb	v0,-1(s3)
9d0027b0:	0b400894 	j	9d002250 <_do_print_cdfFnopuxX+0x450>
9d0027b4:	2673fffe 	addiu	s3,s3,-2
9d0027b8:	8c950000 	lw	s5,0(a0)
9d0027bc:	0000a021 	move	s4,zero
9d0027c0:	24840004 	addiu	a0,a0,4
9d0027c4:	afa400b0 	sw	a0,176(sp)
9d0027c8:	0b4008c0 	j	9d002300 <_do_print_cdfFnopuxX+0x500>
9d0027cc:	afa00074 	sw	zero,116(sp)
9d0027d0:	8c950000 	lw	s5,0(a0)
9d0027d4:	24840004 	addiu	a0,a0,4
9d0027d8:	afa400b0 	sw	a0,176(sp)
9d0027dc:	0b400852 	j	9d002148 <_do_print_cdfFnopuxX+0x348>
9d0027e0:	0015a7c3 	sra	s4,s5,0x1f
9d0027e4:	36f78000 	ori	s7,s7,0x8000
9d0027e8:	26100001 	addiu	s0,s0,1
9d0027ec:	0b4008fb 	j	9d0023ec <_do_print_cdfFnopuxX+0x5ec>
9d0027f0:	26100001 	addiu	s0,s0,1
9d0027f4:	82620001 	lb	v0,1(s3)
9d0027f8:	38420030 	xori	v0,v0,0x30
9d0027fc:	0002102b 	sltu	v0,zero,v0
9d002800:	0b4009a7 	j	9d00269c <_do_print_cdfFnopuxX+0x89c>
9d002804:	00621823 	subu	v1,v1,v0
9d002808:	8c430000 	lw	v1,0(v0)
9d00280c:	00001021 	move	v0,zero
9d002810:	8fa400b0 	lw	a0,176(sp)
9d002814:	24840004 	addiu	a0,a0,4
9d002818:	afa400b0 	sw	a0,176(sp)
9d00281c:	8fa40068 	lw	a0,104(sp)
9d002820:	0b4008a4 	j	9d002290 <_do_print_cdfFnopuxX+0x490>
9d002824:	ac640000 	sw	a0,0(v1)
9d002828:	27a30057 	addiu	v1,sp,87
9d00282c:	afa30070 	sw	v1,112(sp)
9d002830:	0b40087e 	j	9d0021f8 <_do_print_cdfFnopuxX+0x3f8>
9d002834:	00609821 	move	s3,v1
9d002838:	27a20057 	addiu	v0,sp,87
9d00283c:	afa20070 	sw	v0,112(sp)
9d002840:	0b40087e 	j	9d0021f8 <_do_print_cdfFnopuxX+0x3f8>
9d002844:	00409821 	move	s3,v0
9d002848:	0f401798 	jal	9d005e60 <strlen>
9d00284c:	02002021 	move	a0,s0
9d002850:	0b40097a 	j	9d0025e8 <_do_print_cdfFnopuxX+0x7e8>
9d002854:	afb70010 	sw	s7,16(sp)
9d002858:	8c820000 	lw	v0,0(a0)
9d00285c:	8fa40068 	lw	a0,104(sp)
9d002860:	00041fc3 	sra	v1,a0,0x1f
9d002864:	8fa400b0 	lw	a0,176(sp)
9d002868:	24840004 	addiu	a0,a0,4
9d00286c:	afa400b0 	sw	a0,176(sp)
9d002870:	8fa40068 	lw	a0,104(sp)
9d002874:	ac440000 	sw	a0,0(v0)
9d002878:	ac430004 	sw	v1,4(v0)
9d00287c:	0b4008a4 	j	9d002290 <_do_print_cdfFnopuxX+0x490>
9d002880:	00001021 	move	v0,zero
9d002884:	8fa200b0 	lw	v0,176(sp)
9d002888:	8c430000 	lw	v1,0(v0)
9d00288c:	00001021 	move	v0,zero
9d002890:	8fa400b0 	lw	a0,176(sp)
9d002894:	24840004 	addiu	a0,a0,4
9d002898:	afa400b0 	sw	a0,176(sp)
9d00289c:	11000003 	beqz	t0,9d0028ac <_do_print_cdfFnopuxX+0xaac>
9d0028a0:	8fa40068 	lw	a0,104(sp)
9d0028a4:	0b4008a4 	j	9d002290 <_do_print_cdfFnopuxX+0x490>
9d0028a8:	a0640000 	sb	a0,0(v1)
9d0028ac:	0b4008a4 	j	9d002290 <_do_print_cdfFnopuxX+0x490>
9d0028b0:	ac640000 	sw	a0,0(v1)

Disassembly of section .text:

9d0028b4 <char_ops>:
#include <stdio.h>


void char_ops(char c1, char c2, char c3){
9d0028b4:	27bdff80 	addiu	sp,sp,-128
9d0028b8:	afbf007c 	sw	ra,124(sp)
9d0028bc:	afbe0078 	sw	s8,120(sp)
9d0028c0:	03a0f021 	move	s8,sp
9d0028c4:	00a01821 	move	v1,a1
9d0028c8:	00c01021 	move	v0,a2
9d0028cc:	a3c40080 	sb	a0,128(s8)
9d0028d0:	a3c30084 	sb	v1,132(s8)
9d0028d4:	a3c20088 	sb	v0,136(s8)
  char outstring[100];

  c3 = c1 + c2;
9d0028d8:	93c30080 	lbu	v1,128(s8)
9d0028dc:	93c20084 	lbu	v0,132(s8)
9d0028e0:	00621021 	addu	v0,v1,v0
9d0028e4:	304200ff 	andi	v0,v0,0xff
9d0028e8:	a3c20010 	sb	v0,16(s8)
  printf("char addition: %i \r\n", c3);            // operation makes c3 an int
9d0028ec:	83c20010 	lb	v0,16(s8)
9d0028f0:	3c039d00 	lui	v1,0x9d00
9d0028f4:	246450e8 	addiu	a0,v1,20712
9d0028f8:	00402821 	move	a1,v0
9d0028fc:	0f4018e1 	jal	9d006384 <_printf_cdfFnopuxX>
9d002900:	00000000 	nop

  c3 = c1 - c2;
9d002904:	93c30080 	lbu	v1,128(s8)
9d002908:	93c20084 	lbu	v0,132(s8)
9d00290c:	00621023 	subu	v0,v1,v0
9d002910:	304200ff 	andi	v0,v0,0xff
9d002914:	a3c20010 	sb	v0,16(s8)
  printf("char subtraction: %i \r\n", c3);
9d002918:	83c20010 	lb	v0,16(s8)
9d00291c:	3c039d00 	lui	v1,0x9d00
9d002920:	24645100 	addiu	a0,v1,20736
9d002924:	00402821 	move	a1,v0
9d002928:	0f4018e1 	jal	9d006384 <_printf_cdfFnopuxX>
9d00292c:	00000000 	nop

  c3 = c1 * c2;
9d002930:	93c30080 	lbu	v1,128(s8)
9d002934:	93c20084 	lbu	v0,132(s8)
9d002938:	00620018 	mult	v1,v0
9d00293c:	00001812 	mflo	v1
9d002940:	306200ff 	andi	v0,v1,0xff
9d002944:	a3c20010 	sb	v0,16(s8)
  printf("char multiplication: %i \r\n", c3);
9d002948:	83c20010 	lb	v0,16(s8)
9d00294c:	3c039d00 	lui	v1,0x9d00
9d002950:	24645118 	addiu	a0,v1,20760
9d002954:	00402821 	move	a1,v0
9d002958:	0f4018e1 	jal	9d006384 <_printf_cdfFnopuxX>
9d00295c:	00000000 	nop

  c3 = c1 / c2;
9d002960:	83c30080 	lb	v1,128(s8)
9d002964:	83c20084 	lb	v0,132(s8)
9d002968:	0062001a 	div	zero,v1,v0
9d00296c:	004001f4 	teq	v0,zero,0x7
9d002970:	00001010 	mfhi	v0
9d002974:	00001012 	mflo	v0
9d002978:	a3c20010 	sb	v0,16(s8)
  printf("char division: %i \r\n", c3);
9d00297c:	83c20010 	lb	v0,16(s8)
9d002980:	3c039d00 	lui	v1,0x9d00
9d002984:	24645134 	addiu	a0,v1,20788
9d002988:	00402821 	move	a1,v0
9d00298c:	0f4018e1 	jal	9d006384 <_printf_cdfFnopuxX>
9d002990:	00000000 	nop

  printf("\n");
9d002994:	2404000a 	li	a0,10
9d002998:	0f40190a 	jal	9d006428 <putchar>
9d00299c:	00000000 	nop
}
9d0029a0:	03c0e821 	move	sp,s8
9d0029a4:	8fbf007c 	lw	ra,124(sp)
9d0029a8:	8fbe0078 	lw	s8,120(sp)
9d0029ac:	27bd0080 	addiu	sp,sp,128
9d0029b0:	03e00008 	jr	ra
9d0029b4:	00000000 	nop

9d0029b8 <int_ops>:


void int_ops(int i1, int i2, int i3){
9d0029b8:	27bdff80 	addiu	sp,sp,-128
9d0029bc:	afbf007c 	sw	ra,124(sp)
9d0029c0:	afbe0078 	sw	s8,120(sp)
9d0029c4:	03a0f021 	move	s8,sp
9d0029c8:	afc40080 	sw	a0,128(s8)
9d0029cc:	afc50084 	sw	a1,132(s8)
9d0029d0:	afc60088 	sw	a2,136(s8)
  char outstring[100];

  i3 = i1 + i2;
9d0029d4:	8fc30080 	lw	v1,128(s8)
9d0029d8:	8fc20084 	lw	v0,132(s8)
9d0029dc:	00621021 	addu	v0,v1,v0
9d0029e0:	afc20010 	sw	v0,16(s8)
  printf("int addition: %i \r\n", i3);
9d0029e4:	3c029d00 	lui	v0,0x9d00
9d0029e8:	2444514c 	addiu	a0,v0,20812
9d0029ec:	8fc50010 	lw	a1,16(s8)
9d0029f0:	0f4018e1 	jal	9d006384 <_printf_cdfFnopuxX>
9d0029f4:	00000000 	nop

  i3 = i1 - i2;
9d0029f8:	8fc30080 	lw	v1,128(s8)
9d0029fc:	8fc20084 	lw	v0,132(s8)
9d002a00:	00621023 	subu	v0,v1,v0
9d002a04:	afc20010 	sw	v0,16(s8)
  printf("int subtraction: %i \r\n", i3);
9d002a08:	3c029d00 	lui	v0,0x9d00
9d002a0c:	24445160 	addiu	a0,v0,20832
9d002a10:	8fc50010 	lw	a1,16(s8)
9d002a14:	0f4018e1 	jal	9d006384 <_printf_cdfFnopuxX>
9d002a18:	00000000 	nop

  i3 = i1 * i2;
9d002a1c:	8fc30080 	lw	v1,128(s8)
9d002a20:	8fc20084 	lw	v0,132(s8)
9d002a24:	00620018 	mult	v1,v0
9d002a28:	00001012 	mflo	v0
9d002a2c:	afc20010 	sw	v0,16(s8)
  printf("int multiplication: %i \r\n", i3);
9d002a30:	3c029d00 	lui	v0,0x9d00
9d002a34:	24445178 	addiu	a0,v0,20856
9d002a38:	8fc50010 	lw	a1,16(s8)
9d002a3c:	0f4018e1 	jal	9d006384 <_printf_cdfFnopuxX>
9d002a40:	00000000 	nop

  i3 = i1 / i2;
9d002a44:	8fc30080 	lw	v1,128(s8)
9d002a48:	8fc20084 	lw	v0,132(s8)
9d002a4c:	0062001a 	div	zero,v1,v0
9d002a50:	004001f4 	teq	v0,zero,0x7
9d002a54:	00001010 	mfhi	v0
9d002a58:	00001012 	mflo	v0
9d002a5c:	afc20010 	sw	v0,16(s8)
  printf("int division: %i \r\n", i3);
9d002a60:	3c029d00 	lui	v0,0x9d00
9d002a64:	24445194 	addiu	a0,v0,20884
9d002a68:	8fc50010 	lw	a1,16(s8)
9d002a6c:	0f4018e1 	jal	9d006384 <_printf_cdfFnopuxX>
9d002a70:	00000000 	nop

  printf("\n");
9d002a74:	2404000a 	li	a0,10
9d002a78:	0f40190a 	jal	9d006428 <putchar>
9d002a7c:	00000000 	nop
}
9d002a80:	03c0e821 	move	sp,s8
9d002a84:	8fbf007c 	lw	ra,124(sp)
9d002a88:	8fbe0078 	lw	s8,120(sp)
9d002a8c:	27bd0080 	addiu	sp,sp,128
9d002a90:	03e00008 	jr	ra
9d002a94:	00000000 	nop

9d002a98 <long_ops>:


void long_ops(long int j1, long int j2, long int j3){
9d002a98:	27bdff80 	addiu	sp,sp,-128
9d002a9c:	afbf007c 	sw	ra,124(sp)
9d002aa0:	afbe0078 	sw	s8,120(sp)
9d002aa4:	03a0f021 	move	s8,sp
9d002aa8:	afc40080 	sw	a0,128(s8)
9d002aac:	afc50084 	sw	a1,132(s8)
9d002ab0:	afc60088 	sw	a2,136(s8)
  char outstring[100];

  j3 = j1 + j2;
9d002ab4:	8fc30080 	lw	v1,128(s8)
9d002ab8:	8fc20084 	lw	v0,132(s8)
9d002abc:	00621021 	addu	v0,v1,v0
9d002ac0:	afc20010 	sw	v0,16(s8)
  printf("long addition: %li \r\n", j3);
9d002ac4:	3c029d00 	lui	v0,0x9d00
9d002ac8:	244451a8 	addiu	a0,v0,20904
9d002acc:	8fc50010 	lw	a1,16(s8)
9d002ad0:	0f4018e1 	jal	9d006384 <_printf_cdfFnopuxX>
9d002ad4:	00000000 	nop

  j3 = j1 - j2;
9d002ad8:	8fc30080 	lw	v1,128(s8)
9d002adc:	8fc20084 	lw	v0,132(s8)
9d002ae0:	00621023 	subu	v0,v1,v0
9d002ae4:	afc20010 	sw	v0,16(s8)
  printf("long subtraction: %li \r\n", j3);
9d002ae8:	3c029d00 	lui	v0,0x9d00
9d002aec:	244451c0 	addiu	a0,v0,20928
9d002af0:	8fc50010 	lw	a1,16(s8)
9d002af4:	0f4018e1 	jal	9d006384 <_printf_cdfFnopuxX>
9d002af8:	00000000 	nop

  j3 = j1 * j2;
9d002afc:	8fc30080 	lw	v1,128(s8)
9d002b00:	8fc20084 	lw	v0,132(s8)
9d002b04:	00620018 	mult	v1,v0
9d002b08:	00001012 	mflo	v0
9d002b0c:	afc20010 	sw	v0,16(s8)
  printf("long multiplication: %li \r\n", j3);
9d002b10:	3c029d00 	lui	v0,0x9d00
9d002b14:	244451dc 	addiu	a0,v0,20956
9d002b18:	8fc50010 	lw	a1,16(s8)
9d002b1c:	0f4018e1 	jal	9d006384 <_printf_cdfFnopuxX>
9d002b20:	00000000 	nop

  j3 = j1 / j2;
9d002b24:	8fc30080 	lw	v1,128(s8)
9d002b28:	8fc20084 	lw	v0,132(s8)
9d002b2c:	0062001a 	div	zero,v1,v0
9d002b30:	004001f4 	teq	v0,zero,0x7
9d002b34:	00001010 	mfhi	v0
9d002b38:	00001012 	mflo	v0
9d002b3c:	afc20010 	sw	v0,16(s8)
  printf("long division: %li \r\n", j3);
9d002b40:	3c029d00 	lui	v0,0x9d00
9d002b44:	244451f8 	addiu	a0,v0,20984
9d002b48:	8fc50010 	lw	a1,16(s8)
9d002b4c:	0f4018e1 	jal	9d006384 <_printf_cdfFnopuxX>
9d002b50:	00000000 	nop

  printf("\n");
9d002b54:	2404000a 	li	a0,10
9d002b58:	0f40190a 	jal	9d006428 <putchar>
9d002b5c:	00000000 	nop
}
9d002b60:	03c0e821 	move	sp,s8
9d002b64:	8fbf007c 	lw	ra,124(sp)
9d002b68:	8fbe0078 	lw	s8,120(sp)
9d002b6c:	27bd0080 	addiu	sp,sp,128
9d002b70:	03e00008 	jr	ra
9d002b74:	00000000 	nop

9d002b78 <float_ops>:


void float_ops(float f1, float f2, float f3){
9d002b78:	27bdff80 	addiu	sp,sp,-128
9d002b7c:	afbf007c 	sw	ra,124(sp)
9d002b80:	afbe0078 	sw	s8,120(sp)
9d002b84:	03a0f021 	move	s8,sp
9d002b88:	afc40080 	sw	a0,128(s8)
9d002b8c:	afc50084 	sw	a1,132(s8)
9d002b90:	afc60088 	sw	a2,136(s8)
  char outstring[100];

  f3 = f1 + f2;
9d002b94:	8fc40080 	lw	a0,128(s8)
9d002b98:	8fc50084 	lw	a1,132(s8)
9d002b9c:	0f401311 	jal	9d004c44 <__addsf3>
9d002ba0:	00000000 	nop
9d002ba4:	afc20010 	sw	v0,16(s8)
  printf("float addition: %f \r\n", f3);
9d002ba8:	3c029d00 	lui	v0,0x9d00
9d002bac:	24445210 	addiu	a0,v0,21008
9d002bb0:	8fc50010 	lw	a1,16(s8)
9d002bb4:	0f4018e1 	jal	9d006384 <_printf_cdfFnopuxX>
9d002bb8:	00000000 	nop

  f3 = f1 - f2;
9d002bbc:	8fc40080 	lw	a0,128(s8)
9d002bc0:	8fc50084 	lw	a1,132(s8)
9d002bc4:	0f40130f 	jal	9d004c3c <.LFE9>
9d002bc8:	00000000 	nop
9d002bcc:	afc20010 	sw	v0,16(s8)
  printf("float subtraction: %f \r\n", f3);
9d002bd0:	3c029d00 	lui	v0,0x9d00
9d002bd4:	24445228 	addiu	a0,v0,21032
9d002bd8:	8fc50010 	lw	a1,16(s8)
9d002bdc:	0f4018e1 	jal	9d006384 <_printf_cdfFnopuxX>
9d002be0:	00000000 	nop

  f3 = f1 * f2;
9d002be4:	8fc40080 	lw	a0,128(s8)
9d002be8:	8fc50084 	lw	a1,132(s8)
9d002bec:	0f4014c0 	jal	9d005300 <__mulsf3>
9d002bf0:	00000000 	nop
9d002bf4:	afc20010 	sw	v0,16(s8)
  printf("float multiplication: %f \r\n", f3);
9d002bf8:	3c029d00 	lui	v0,0x9d00
9d002bfc:	24445244 	addiu	a0,v0,21060
9d002c00:	8fc50010 	lw	a1,16(s8)
9d002c04:	0f4018e1 	jal	9d006384 <_printf_cdfFnopuxX>
9d002c08:	00000000 	nop

  f3 = f1 / f2;
9d002c0c:	8fc40080 	lw	a0,128(s8)
9d002c10:	8fc50084 	lw	a1,132(s8)
9d002c14:	0f4013ad 	jal	9d004eb4 <__divsf3>
9d002c18:	00000000 	nop
9d002c1c:	afc20010 	sw	v0,16(s8)
  printf("float division: %f \r\n", f3);
9d002c20:	3c029d00 	lui	v0,0x9d00
9d002c24:	24445260 	addiu	a0,v0,21088
9d002c28:	8fc50010 	lw	a1,16(s8)
9d002c2c:	0f4018e1 	jal	9d006384 <_printf_cdfFnopuxX>
9d002c30:	00000000 	nop

  printf("\n");
9d002c34:	2404000a 	li	a0,10
9d002c38:	0f40190a 	jal	9d006428 <putchar>
9d002c3c:	00000000 	nop
}
9d002c40:	03c0e821 	move	sp,s8
9d002c44:	8fbf007c 	lw	ra,124(sp)
9d002c48:	8fbe0078 	lw	s8,120(sp)
9d002c4c:	27bd0080 	addiu	sp,sp,128
9d002c50:	03e00008 	jr	ra
9d002c54:	00000000 	nop

9d002c58 <dbl_ops>:


void dbl_ops(long double d1, long double d2, long double d3){
9d002c58:	27bdff78 	addiu	sp,sp,-136
9d002c5c:	afbf0084 	sw	ra,132(sp)
9d002c60:	afbe0080 	sw	s8,128(sp)
9d002c64:	03a0f021 	move	s8,sp
9d002c68:	afc40088 	sw	a0,136(s8)
9d002c6c:	afc5008c 	sw	a1,140(s8)
9d002c70:	afc60090 	sw	a2,144(s8)
9d002c74:	afc70094 	sw	a3,148(s8)
  char outstring[100];

  d3 = d1 + d2;
9d002c78:	8fc40088 	lw	a0,136(s8)
9d002c7c:	8fc5008c 	lw	a1,140(s8)
9d002c80:	8fc60090 	lw	a2,144(s8)
9d002c84:	8fc70094 	lw	a3,148(s8)
9d002c88:	0f40108d 	jal	9d004234 <__adddf3>
9d002c8c:	00000000 	nop
9d002c90:	afc20010 	sw	v0,16(s8)
9d002c94:	afc30014 	sw	v1,20(s8)
  printf("double addition: %Lf \r\n", d3);
9d002c98:	3c029d00 	lui	v0,0x9d00
9d002c9c:	24445278 	addiu	a0,v0,21112
9d002ca0:	8fc60010 	lw	a2,16(s8)
9d002ca4:	8fc70014 	lw	a3,20(s8)
9d002ca8:	0f4018e1 	jal	9d006384 <_printf_cdfFnopuxX>
9d002cac:	00000000 	nop

  d3 = d1 - d2;
9d002cb0:	8fc40088 	lw	a0,136(s8)
9d002cb4:	8fc5008c 	lw	a1,140(s8)
9d002cb8:	8fc60090 	lw	a2,144(s8)
9d002cbc:	8fc70094 	lw	a3,148(s8)
9d002cc0:	0f40108b 	jal	9d00422c <.LFE1>
9d002cc4:	00000000 	nop
9d002cc8:	afc20010 	sw	v0,16(s8)
9d002ccc:	afc30014 	sw	v1,20(s8)
  printf("double subtraction: %Lf \r\n", d3);
9d002cd0:	3c029d00 	lui	v0,0x9d00
9d002cd4:	24445290 	addiu	a0,v0,21136
9d002cd8:	8fc60010 	lw	a2,16(s8)
9d002cdc:	8fc70014 	lw	a3,20(s8)
9d002ce0:	0f4018e1 	jal	9d006384 <_printf_cdfFnopuxX>
9d002ce4:	00000000 	nop

  d3 = d1 * d2;
9d002ce8:	8fc40088 	lw	a0,136(s8)
9d002cec:	8fc5008c 	lw	a1,140(s8)
9d002cf0:	8fc60090 	lw	a2,144(s8)
9d002cf4:	8fc70094 	lw	a3,148(s8)
9d002cf8:	0f401197 	jal	9d00465c <__muldf3>
9d002cfc:	00000000 	nop
9d002d00:	afc20010 	sw	v0,16(s8)
9d002d04:	afc30014 	sw	v1,20(s8)
  printf("double multiplication: %Lf \r\n", d3);
9d002d08:	3c029d00 	lui	v0,0x9d00
9d002d0c:	244452ac 	addiu	a0,v0,21164
9d002d10:	8fc60010 	lw	a2,16(s8)
9d002d14:	8fc70014 	lw	a3,20(s8)
9d002d18:	0f4018e1 	jal	9d006384 <_printf_cdfFnopuxX>
9d002d1c:	00000000 	nop

  d3 = d1 / d2;
9d002d20:	8fc40088 	lw	a0,136(s8)
9d002d24:	8fc5008c 	lw	a1,140(s8)
9d002d28:	8fc60090 	lw	a2,144(s8)
9d002d2c:	8fc70094 	lw	a3,148(s8)
9d002d30:	0f400d2e 	jal	9d0034b8 <__divdf3>
9d002d34:	00000000 	nop
9d002d38:	afc20010 	sw	v0,16(s8)
9d002d3c:	afc30014 	sw	v1,20(s8)
  printf("double division: %Lf \r\n", d3);
9d002d40:	3c029d00 	lui	v0,0x9d00
9d002d44:	244452cc 	addiu	a0,v0,21196
9d002d48:	8fc60010 	lw	a2,16(s8)
9d002d4c:	8fc70014 	lw	a3,20(s8)
9d002d50:	0f4018e1 	jal	9d006384 <_printf_cdfFnopuxX>
9d002d54:	00000000 	nop

  printf("\n");
9d002d58:	2404000a 	li	a0,10
9d002d5c:	0f40190a 	jal	9d006428 <putchar>
9d002d60:	00000000 	nop
}
9d002d64:	03c0e821 	move	sp,s8
9d002d68:	8fbf0084 	lw	ra,132(sp)
9d002d6c:	8fbe0080 	lw	s8,128(sp)
9d002d70:	27bd0088 	addiu	sp,sp,136
9d002d74:	03e00008 	jr	ra
9d002d78:	00000000 	nop

9d002d7c <main>:


void main(void){
9d002d7c:	27bdff88 	addiu	sp,sp,-120
9d002d80:	afbf0074 	sw	ra,116(sp)
9d002d84:	afbe0070 	sw	s8,112(sp)
9d002d88:	03a0f021 	move	s8,sp

  printf("\n");
9d002d8c:	2404000a 	li	a0,10
9d002d90:	0f40190a 	jal	9d006428 <putchar>
9d002d94:	00000000 	nop

  char c1=5, c2=6, c3;
9d002d98:	24020005 	li	v0,5
9d002d9c:	a3c20018 	sb	v0,24(s8)
9d002da0:	24020006 	li	v0,6
9d002da4:	a3c20019 	sb	v0,25(s8)
  int i1=5, i2=6, i3;
9d002da8:	24020005 	li	v0,5
9d002dac:	afc2001c 	sw	v0,28(s8)
9d002db0:	24020006 	li	v0,6
9d002db4:	afc20020 	sw	v0,32(s8)
  long long int j1=5, j2=6, j3;
9d002db8:	24020005 	li	v0,5
9d002dbc:	00001821 	move	v1,zero
9d002dc0:	00400013 	mtlo	v0
9d002dc4:	00600011 	mthi	v1
9d002dc8:	00001012 	mflo	v0
9d002dcc:	00001810 	mfhi	v1
9d002dd0:	afc20028 	sw	v0,40(s8)
9d002dd4:	afc3002c 	sw	v1,44(s8)
9d002dd8:	24020006 	li	v0,6
9d002ddc:	00001821 	move	v1,zero
9d002de0:	00400013 	mtlo	v0
9d002de4:	00600011 	mthi	v1
9d002de8:	00001012 	mflo	v0
9d002dec:	00001810 	mfhi	v1
9d002df0:	afc20030 	sw	v0,48(s8)
9d002df4:	afc30034 	sw	v1,52(s8)
  float f1=1.01, f2=2.02, f3;
9d002df8:	3c029d00 	lui	v0,0x9d00
9d002dfc:	8c4252e4 	lw	v0,21220(v0)
9d002e00:	afc20038 	sw	v0,56(s8)
9d002e04:	3c029d00 	lui	v0,0x9d00
9d002e08:	8c4252e8 	lw	v0,21224(v0)
9d002e0c:	afc2003c 	sw	v0,60(s8)
  long double d1=1.01, d2=2.02, d3;
9d002e10:	3c029d00 	lui	v0,0x9d00
9d002e14:	8c4352f4 	lw	v1,21236(v0)
9d002e18:	8c4252f0 	lw	v0,21232(v0)
9d002e1c:	afc20040 	sw	v0,64(s8)
9d002e20:	afc30044 	sw	v1,68(s8)
9d002e24:	3c029d00 	lui	v0,0x9d00
9d002e28:	8c4352fc 	lw	v1,21244(v0)
9d002e2c:	8c4252f8 	lw	v0,21240(v0)
9d002e30:	afc20048 	sw	v0,72(s8)
9d002e34:	afc3004c 	sw	v1,76(s8)

  char_ops(c1, c2, c3);
9d002e38:	83c40018 	lb	a0,24(s8)
9d002e3c:	83c30019 	lb	v1,25(s8)
9d002e40:	83c20050 	lb	v0,80(s8)
9d002e44:	00602821 	move	a1,v1
9d002e48:	00403021 	move	a2,v0
9d002e4c:	0f400a2d 	jal	9d0028b4 <char_ops>
9d002e50:	00000000 	nop
  int_ops(i1, i2, i3);
9d002e54:	8fc4001c 	lw	a0,28(s8)
9d002e58:	8fc50020 	lw	a1,32(s8)
9d002e5c:	8fc60054 	lw	a2,84(s8)
9d002e60:	0f400a6e 	jal	9d0029b8 <int_ops>
9d002e64:	00000000 	nop
  long_ops(j1, j2, j3);
9d002e68:	8fc40028 	lw	a0,40(s8)
9d002e6c:	8fc30030 	lw	v1,48(s8)
9d002e70:	8fc20058 	lw	v0,88(s8)
9d002e74:	00602821 	move	a1,v1
9d002e78:	00403021 	move	a2,v0
9d002e7c:	0f400aa6 	jal	9d002a98 <long_ops>
9d002e80:	00000000 	nop
  float_ops(f1, f2, f3);
9d002e84:	8fc40038 	lw	a0,56(s8)
9d002e88:	8fc5003c 	lw	a1,60(s8)
9d002e8c:	8fc60060 	lw	a2,96(s8)
9d002e90:	0f400ade 	jal	9d002b78 <float_ops>
9d002e94:	00000000 	nop
  dbl_ops(d1, d2, d3);
9d002e98:	8fc20068 	lw	v0,104(s8)
9d002e9c:	8fc3006c 	lw	v1,108(s8)
9d002ea0:	afa20010 	sw	v0,16(sp)
9d002ea4:	afa30014 	sw	v1,20(sp)
9d002ea8:	8fc40040 	lw	a0,64(s8)
9d002eac:	8fc50044 	lw	a1,68(s8)
9d002eb0:	8fc60048 	lw	a2,72(s8)
9d002eb4:	8fc7004c 	lw	a3,76(s8)
9d002eb8:	0f400b16 	jal	9d002c58 <dbl_ops>
9d002ebc:	00000000 	nop
}
9d002ec0:	03c0e821 	move	sp,s8
9d002ec4:	8fbf0074 	lw	ra,116(sp)
9d002ec8:	8fbe0070 	lw	s8,112(sp)
9d002ecc:	27bd0078 	addiu	sp,sp,120
9d002ed0:	03e00008 	jr	ra
9d002ed4:	00000000 	nop

Disassembly of section .text._fconvert:

9d002ed8 <_fconvert>:
9d002ed8:	27bdfda0 	addiu	sp,sp,-608
9d002edc:	afbf025c 	sw	ra,604(sp)
9d002ee0:	afbe0258 	sw	s8,600(sp)
9d002ee4:	afb70254 	sw	s7,596(sp)
9d002ee8:	afb60250 	sw	s6,592(sp)
9d002eec:	afb5024c 	sw	s5,588(sp)
9d002ef0:	afb40248 	sw	s4,584(sp)
9d002ef4:	afb30244 	sw	s3,580(sp)
9d002ef8:	afb20240 	sw	s2,576(sp)
9d002efc:	afb1023c 	sw	s1,572(sp)
9d002f00:	afb00238 	sw	s0,568(sp)
9d002f04:	00a08021 	move	s0,a1
9d002f08:	3c027f80 	lui	v0,0x7f80
9d002f0c:	00451824 	and	v1,v0,a1
9d002f10:	afa40260 	sw	a0,608(sp)
9d002f14:	afa60268 	sw	a2,616(sp)
9d002f18:	00e0b821 	move	s7,a3
9d002f1c:	8fb50270 	lw	s5,624(sp)
9d002f20:	97a40274 	lhu	a0,628(sp)
9d002f24:	106200d3 	beq	v1,v0,9d003274 <_fconvert+0x39c>
9d002f28:	afa40228 	sw	a0,552(sp)
9d002f2c:	2402ffff 	li	v0,-1
9d002f30:	12a2011e 	beq	s5,v0,9d0033ac <_fconvert+0x4d4>
9d002f34:	2aa20028 	slti	v0,s5,40
9d002f38:	14400009 	bnez	v0,9d002f60 <_fconvert+0x88>
9d002f3c:	afa0022c 	sw	zero,556(sp)
9d002f40:	8fa30268 	lw	v1,616(sp)
9d002f44:	7c032944 	ins	v1,zero,0x5,0x1
9d002f48:	24020047 	li	v0,71
9d002f4c:	10620134 	beq	v1,v0,9d003420 <_fconvert+0x548>
9d002f50:	8fa30228 	lw	v1,552(sp)
9d002f54:	26b5ffd9 	addiu	s5,s5,-39
9d002f58:	afb5022c 	sw	s5,556(sp)
9d002f5c:	24150027 	li	s5,39
9d002f60:	a3a00019 	sb	zero,25(sp)
9d002f64:	06000069 	bltz	s0,9d00310c <_fconvert+0x234>
9d002f68:	afa00230 	sw	zero,560(sp)
9d002f6c:	02002021 	move	a0,s0
9d002f70:	0f4016b5 	jal	9d005ad4 <fpmodf>
9d002f74:	27a50224 	addiu	a1,sp,548
9d002f78:	0040b021 	move	s6,v0
9d002f7c:	8fbe0224 	lw	s8,548(sp)
9d002f80:	00002821 	move	a1,zero
9d002f84:	0f401771 	jal	9d005dc4 <__eqsf2>
9d002f88:	03c02021 	move	a0,s8
9d002f8c:	1040012e 	beqz	v0,9d003448 <_fconvert+0x570>
9d002f90:	3c029d00 	lui	v0,0x9d00
9d002f94:	3c109d00 	lui	s0,0x9d00
9d002f98:	8e1261bc 	lw	s2,25020(s0)
9d002f9c:	8c5461c0 	lw	s4,25024(v0)
9d002fa0:	00008821 	move	s1,zero
9d002fa4:	27b00218 	addiu	s0,sp,536
9d002fa8:	02409821 	move	s3,s2
9d002fac:	03c02021 	move	a0,s8
9d002fb0:	0f4013ad 	jal	9d004eb4 <__divsf3>
9d002fb4:	02402821 	move	a1,s2
9d002fb8:	00402021 	move	a0,v0
9d002fbc:	0f4016b5 	jal	9d005ad4 <fpmodf>
9d002fc0:	27a50224 	addiu	a1,sp,548
9d002fc4:	00402021 	move	a0,v0
9d002fc8:	02802821 	move	a1,s4
9d002fcc:	0f401311 	jal	9d004c44 <__addsf3>
9d002fd0:	afa20220 	sw	v0,544(sp)
9d002fd4:	00402021 	move	a0,v0
9d002fd8:	0f4014c0 	jal	9d005300 <__mulsf3>
9d002fdc:	02602821 	move	a1,s3
9d002fe0:	0f40181e 	jal	9d006078 <__fixsfsi>
9d002fe4:	00402021 	move	a0,v0
9d002fe8:	8fbe0224 	lw	s8,548(sp)
9d002fec:	2610ffff 	addiu	s0,s0,-1
9d002ff0:	24420030 	addiu	v0,v0,48
9d002ff4:	03c02021 	move	a0,s8
9d002ff8:	00002821 	move	a1,zero
9d002ffc:	a2020001 	sb	v0,1(s0)
9d003000:	0f401771 	jal	9d005dc4 <__eqsf2>
9d003004:	26310001 	addiu	s1,s1,1
9d003008:	1440ffe9 	bnez	v0,9d002fb0 <_fconvert+0xd8>
9d00300c:	03c02021 	move	a0,s8
9d003010:	24020046 	li	v0,70
9d003014:	8fa30268 	lw	v1,616(sp)
9d003018:	10620041 	beq	v1,v0,9d003120 <_fconvert+0x248>
9d00301c:	24020066 	li	v0,102
9d003020:	1062003f 	beq	v1,v0,9d003120 <_fconvert+0x248>
9d003024:	00009821 	move	s3,zero
9d003028:	83a40019 	lb	a0,25(sp)
9d00302c:	27a20019 	addiu	v0,sp,25
9d003030:	27a3001a 	addiu	v1,sp,26
9d003034:	0064100a 	movz	v0,v1,a0
9d003038:	8fa30230 	lw	v1,560(sp)
9d00303c:	10600027 	beqz	v1,9d0030dc <_fconvert+0x204>
9d003040:	8fa40228 	lw	a0,552(sp)
9d003044:	2452ffff 	addiu	s2,v0,-1
9d003048:	a043ffff 	sb	v1,-1(v0)
9d00304c:	26730001 	addiu	s3,s3,1
9d003050:	8fa30228 	lw	v1,552(sp)
9d003054:	30710008 	andi	s1,v1,0x8
9d003058:	3231ffff 	andi	s1,s1,0xffff
9d00305c:	8fa3022c 	lw	v1,556(sp)
9d003060:	1620006f 	bnez	s1,9d003220 <_fconvert+0x348>
9d003064:	02638021 	addu	s0,s3,v1
9d003068:	0217102a 	slt	v0,s0,s7
9d00306c:	1040006d 	beqz	v0,9d003224 <_fconvert+0x34c>
9d003070:	02402021 	move	a0,s2
9d003074:	8fa30228 	lw	v1,552(sp)
9d003078:	30620004 	andi	v0,v1,0x4
9d00307c:	8fa40260 	lw	a0,608(sp)
9d003080:	104000ec 	beqz	v0,9d003434 <_fconvert+0x55c>
9d003084:	02f02823 	subu	a1,s7,s0
9d003088:	3c069d00 	lui	a2,0x9d00
9d00308c:	0f40174a 	jal	9d005d28 <repl>
9d003090:	24c6617c 	addiu	a2,a2,24956
9d003094:	2403ffff 	li	v1,-1
9d003098:	14430062 	bne	v0,v1,9d003224 <_fconvert+0x34c>
9d00309c:	02402021 	move	a0,s2
9d0030a0:	0217102a 	slt	v0,s0,s7
9d0030a4:	0202b80a 	movz	s7,s0,v0
9d0030a8:	02e01021 	move	v0,s7
9d0030ac:	8fbf025c 	lw	ra,604(sp)
9d0030b0:	8fbe0258 	lw	s8,600(sp)
9d0030b4:	8fb70254 	lw	s7,596(sp)
9d0030b8:	8fb60250 	lw	s6,592(sp)
9d0030bc:	8fb5024c 	lw	s5,588(sp)
9d0030c0:	8fb40248 	lw	s4,584(sp)
9d0030c4:	8fb30244 	lw	s3,580(sp)
9d0030c8:	8fb20240 	lw	s2,576(sp)
9d0030cc:	8fb1023c 	lw	s1,572(sp)
9d0030d0:	8fb00238 	lw	s0,568(sp)
9d0030d4:	03e00008 	jr	ra
9d0030d8:	27bd0260 	addiu	sp,sp,608
9d0030dc:	30830002 	andi	v1,a0,0x2
9d0030e0:	546000b9 	bnezl	v1,9d0033c8 <_fconvert+0x4f0>
9d0030e4:	2452ffff 	addiu	s2,v0,-1
9d0030e8:	8fa40228 	lw	a0,552(sp)
9d0030ec:	30830001 	andi	v1,a0,0x1
9d0030f0:	1060ffd7 	beqz	v1,9d003050 <_fconvert+0x178>
9d0030f4:	00409021 	move	s2,v0
9d0030f8:	2452ffff 	addiu	s2,v0,-1
9d0030fc:	24030020 	li	v1,32
9d003100:	a043ffff 	sb	v1,-1(v0)
9d003104:	0b400c14 	j	9d003050 <_fconvert+0x178>
9d003108:	26730001 	addiu	s3,s3,1
9d00310c:	3c028000 	lui	v0,0x8000
9d003110:	00508026 	xor	s0,v0,s0
9d003114:	2403002d 	li	v1,45
9d003118:	0b400bdb 	j	9d002f6c <_fconvert+0x94>
9d00311c:	afa30230 	sw	v1,560(sp)
9d003120:	1220006f 	beqz	s1,9d0032e0 <_fconvert+0x408>
9d003124:	24020030 	li	v0,48
9d003128:	26020001 	addiu	v0,s0,1
9d00312c:	27a50219 	addiu	a1,sp,537
9d003130:	0045182b 	sltu	v1,v0,a1
9d003134:	106000d9 	beqz	v1,9d00349c <_fconvert+0x5c4>
9d003138:	27b2001a 	addiu	s2,sp,26
9d00313c:	02401821 	move	v1,s2
9d003140:	80440000 	lb	a0,0(v0)
9d003144:	24630001 	addiu	v1,v1,1
9d003148:	24420001 	addiu	v0,v0,1
9d00314c:	1445fffc 	bne	v0,a1,9d003140 <_fconvert+0x268>
9d003150:	a064ffff 	sb	a0,-1(v1)
9d003154:	03b08023 	subu	s0,sp,s0
9d003158:	26100218 	addiu	s0,s0,536
9d00315c:	02508021 	addu	s0,s2,s0
9d003160:	12a00064 	beqz	s5,9d0032f4 <_fconvert+0x41c>
9d003164:	8fa30228 	lw	v1,552(sp)
9d003168:	02c02021 	move	a0,s6
9d00316c:	00002821 	move	a1,zero
9d003170:	26130001 	addiu	s3,s0,1
9d003174:	2402002e 	li	v0,46
9d003178:	0f401771 	jal	9d005dc4 <__eqsf2>
9d00317c:	a2020000 	sb	v0,0(s0)
9d003180:	10400082 	beqz	v0,9d00338c <_fconvert+0x4b4>
9d003184:	26a3ffff 	addiu	v1,s5,-1
9d003188:	3c109d00 	lui	s0,0x9d00
9d00318c:	0b400c69 	j	9d0031a4 <_fconvert+0x2cc>
9d003190:	8e1161bc 	lw	s1,25020(s0)
9d003194:	0f401771 	jal	9d005dc4 <__eqsf2>
9d003198:	00000000 	nop
9d00319c:	1040007b 	beqz	v0,9d00338c <_fconvert+0x4b4>
9d0031a0:	26a3ffff 	addiu	v1,s5,-1
9d0031a4:	02c02021 	move	a0,s6
9d0031a8:	0f4014c0 	jal	9d005300 <__mulsf3>
9d0031ac:	02202821 	move	a1,s1
9d0031b0:	00402021 	move	a0,v0
9d0031b4:	0f4016b5 	jal	9d005ad4 <fpmodf>
9d0031b8:	27a50220 	addiu	a1,sp,544
9d0031bc:	0040b021 	move	s6,v0
9d0031c0:	8fa40220 	lw	a0,544(sp)
9d0031c4:	26730001 	addiu	s3,s3,1
9d0031c8:	0f40181e 	jal	9d006078 <__fixsfsi>
9d0031cc:	26b5ffff 	addiu	s5,s5,-1
9d0031d0:	02c02021 	move	a0,s6
9d0031d4:	00002821 	move	a1,zero
9d0031d8:	24420030 	addiu	v0,v0,48
9d0031dc:	16a0ffed 	bnez	s5,9d003194 <_fconvert+0x2bc>
9d0031e0:	a262ffff 	sb	v0,-1(s3)
9d0031e4:	02c02021 	move	a0,s6
9d0031e8:	0f401771 	jal	9d005dc4 <__eqsf2>
9d0031ec:	00002821 	move	a1,zero
9d0031f0:	54400049 	bnezl	v0,9d003318 <_fconvert+0x440>
9d0031f4:	8e0561bc 	lw	a1,25020(s0)
9d0031f8:	02729823 	subu	s3,s3,s2
9d0031fc:	83a40019 	lb	a0,25(sp)
9d003200:	27a20019 	addiu	v0,sp,25
9d003204:	27a3001a 	addiu	v1,sp,26
9d003208:	0064100a 	movz	v0,v1,a0
9d00320c:	8fa30230 	lw	v1,560(sp)
9d003210:	1060ffb2 	beqz	v1,9d0030dc <_fconvert+0x204>
9d003214:	8fa40228 	lw	a0,552(sp)
9d003218:	0b400c12 	j	9d003048 <_fconvert+0x170>
9d00321c:	2452ffff 	addiu	s2,v0,-1
9d003220:	02402021 	move	a0,s2
9d003224:	02602821 	move	a1,s3
9d003228:	0f40183e 	jal	9d0060f8 <__sputn>
9d00322c:	8fa60260 	lw	a2,608(sp)
9d003230:	2412ffff 	li	s2,-1
9d003234:	1052ff9a 	beq	v0,s2,9d0030a0 <_fconvert+0x1c8>
9d003238:	8fa3022c 	lw	v1,556(sp)
9d00323c:	14600066 	bnez	v1,9d0033d8 <_fconvert+0x500>
9d003240:	8fa40260 	lw	a0,608(sp)
9d003244:	1220ff97 	beqz	s1,9d0030a4 <_fconvert+0x1cc>
9d003248:	0217102a 	slt	v0,s0,s7
9d00324c:	0217102a 	slt	v0,s0,s7
9d003250:	5040ff94 	beqzl	v0,9d0030a4 <_fconvert+0x1cc>
9d003254:	0217102a 	slt	v0,s0,s7
9d003258:	8fa40260 	lw	a0,608(sp)
9d00325c:	02f02823 	subu	a1,s7,s0
9d003260:	3c069d00 	lui	a2,0x9d00
9d003264:	0f40174a 	jal	9d005d28 <repl>
9d003268:	24c6619c 	addiu	a2,a2,24988
9d00326c:	0b400c29 	j	9d0030a4 <_fconvert+0x1cc>
9d003270:	0217102a 	slt	v0,s0,s7
9d003274:	0f401771 	jal	9d005dc4 <__eqsf2>
9d003278:	00a02021 	move	a0,a1
9d00327c:	1440005e 	bnez	v0,9d0033f8 <_fconvert+0x520>
9d003280:	02002021 	move	a0,s0
9d003284:	0f401771 	jal	9d005dc4 <__eqsf2>
9d003288:	00002821 	move	a1,zero
9d00328c:	8fa30228 	lw	v1,552(sp)
9d003290:	afa30010 	sw	v1,16(sp)
9d003294:	0440006f 	bltz	v0,9d003454 <_fconvert+0x57c>
9d003298:	8fa40260 	lw	a0,608(sp)
9d00329c:	3c059d00 	lui	a1,0x9d00
9d0032a0:	24a5616c 	addiu	a1,a1,24940
9d0032a4:	24060004 	li	a2,4
9d0032a8:	0f40152f 	jal	9d0054bc <_outcnvrt>
9d0032ac:	02e03821 	move	a3,s7
9d0032b0:	8fbf025c 	lw	ra,604(sp)
9d0032b4:	8fbe0258 	lw	s8,600(sp)
9d0032b8:	8fb70254 	lw	s7,596(sp)
9d0032bc:	8fb60250 	lw	s6,592(sp)
9d0032c0:	8fb5024c 	lw	s5,588(sp)
9d0032c4:	8fb40248 	lw	s4,584(sp)
9d0032c8:	8fb30244 	lw	s3,580(sp)
9d0032cc:	8fb20240 	lw	s2,576(sp)
9d0032d0:	8fb1023c 	lw	s1,572(sp)
9d0032d4:	8fb00238 	lw	s0,568(sp)
9d0032d8:	03e00008 	jr	ra
9d0032dc:	27bd0260 	addiu	sp,sp,608
9d0032e0:	a3a2001a 	sb	v0,26(sp)
9d0032e4:	27b0001b 	addiu	s0,sp,27
9d0032e8:	16a0ff9f 	bnez	s5,9d003168 <_fconvert+0x290>
9d0032ec:	27b2001a 	addiu	s2,sp,26
9d0032f0:	8fa30228 	lw	v1,552(sp)
9d0032f4:	30620800 	andi	v0,v1,0x800
9d0032f8:	1440005d 	bnez	v0,9d003470 <_fconvert+0x598>
9d0032fc:	02c02021 	move	a0,s6
9d003300:	0f401771 	jal	9d005dc4 <__eqsf2>
9d003304:	00002821 	move	a1,zero
9d003308:	1040ffbb 	beqz	v0,9d0031f8 <_fconvert+0x320>
9d00330c:	02009821 	move	s3,s0
9d003310:	3c109d00 	lui	s0,0x9d00
9d003314:	8e0561bc 	lw	a1,25020(s0)
9d003318:	02c02021 	move	a0,s6
9d00331c:	0f4014c0 	jal	9d005300 <__mulsf3>
9d003320:	2670ffff 	addiu	s0,s3,-1
9d003324:	00402021 	move	a0,v0
9d003328:	0f4016b5 	jal	9d005ad4 <fpmodf>
9d00332c:	27a5021c 	addiu	a1,sp,540
9d003330:	3c029d00 	lui	v0,0x9d00
9d003334:	8c4461c4 	lw	a0,25028(v0)
9d003338:	0f401771 	jal	9d005dc4 <__eqsf2>
9d00333c:	8fa5021c 	lw	a1,540(sp)
9d003340:	2404002e 	li	a0,46
9d003344:	0440000b 	bltz	v0,9d003374 <_fconvert+0x49c>
9d003348:	24050030 	li	a1,48
9d00334c:	0b400c7f 	j	9d0031fc <_fconvert+0x324>
9d003350:	02729823 	subu	s3,s3,s2
9d003354:	24420001 	addiu	v0,v0,1
9d003358:	7c021420 	seb	v0,v0
9d00335c:	2843003a 	slti	v1,v0,58
9d003360:	5460004c 	bnezl	v1,9d003494 <_fconvert+0x5bc>
9d003364:	a2020000 	sb	v0,0(s0)
9d003368:	1212004e 	beq	s0,s2,9d0034a4 <_fconvert+0x5cc>
9d00336c:	a2050000 	sb	a1,0(s0)
9d003370:	2610ffff 	addiu	s0,s0,-1
9d003374:	82020000 	lb	v0,0(s0)
9d003378:	5444fff7 	bnel	v0,a0,9d003358 <_fconvert+0x480>
9d00337c:	24420001 	addiu	v0,v0,1
9d003380:	8202ffff 	lb	v0,-1(s0)
9d003384:	0b400cd5 	j	9d003354 <_fconvert+0x47c>
9d003388:	2610ffff 	addiu	s0,s0,-1
9d00338c:	24630001 	addiu	v1,v1,1
9d003390:	02631821 	addu	v1,s3,v1
9d003394:	24020030 	li	v0,48
9d003398:	26730001 	addiu	s3,s3,1
9d00339c:	1663fffe 	bne	s3,v1,9d003398 <_fconvert+0x4c0>
9d0033a0:	a262ffff 	sb	v0,-1(s3)
9d0033a4:	0b400c7f 	j	9d0031fc <_fconvert+0x324>
9d0033a8:	02729823 	subu	s3,s3,s2
9d0033ac:	afa0022c 	sw	zero,556(sp)
9d0033b0:	24150006 	li	s5,6
9d0033b4:	a3a00019 	sb	zero,25(sp)
9d0033b8:	0601feec 	bgez	s0,9d002f6c <_fconvert+0x94>
9d0033bc:	afa00230 	sw	zero,560(sp)
9d0033c0:	0b400c44 	j	9d003110 <_fconvert+0x238>
9d0033c4:	3c028000 	lui	v0,0x8000
9d0033c8:	2403002b 	li	v1,43
9d0033cc:	a043ffff 	sb	v1,-1(v0)
9d0033d0:	0b400c14 	j	9d003050 <_fconvert+0x178>
9d0033d4:	26730001 	addiu	s3,s3,1
9d0033d8:	8fa5022c 	lw	a1,556(sp)
9d0033dc:	3c069d00 	lui	a2,0x9d00
9d0033e0:	0f40174a 	jal	9d005d28 <repl>
9d0033e4:	24c6617c 	addiu	a2,a2,24956
9d0033e8:	1452ff96 	bne	v0,s2,9d003244 <_fconvert+0x36c>
9d0033ec:	0217102a 	slt	v0,s0,s7
9d0033f0:	0b400c2a 	j	9d0030a8 <_fconvert+0x1d0>
9d0033f4:	0202b80a 	movz	s7,s0,v0
9d0033f8:	8fa30228 	lw	v1,552(sp)
9d0033fc:	afa30010 	sw	v1,16(sp)
9d003400:	8fa40260 	lw	a0,608(sp)
9d003404:	3c059d00 	lui	a1,0x9d00
9d003408:	24a56160 	addiu	a1,a1,24928
9d00340c:	24060003 	li	a2,3
9d003410:	0f40152f 	jal	9d0054bc <_outcnvrt>
9d003414:	02e03821 	move	a3,s7
9d003418:	0b400c2c 	j	9d0030b0 <_fconvert+0x1d8>
9d00341c:	8fbf025c 	lw	ra,604(sp)
9d003420:	30620800 	andi	v0,v1,0x800
9d003424:	5440fecc 	bnezl	v0,9d002f58 <_fconvert+0x80>
9d003428:	26b5ffd9 	addiu	s5,s5,-39
9d00342c:	0b400bd8 	j	9d002f60 <_fconvert+0x88>
9d003430:	24150027 	li	s5,39
9d003434:	3c069d00 	lui	a2,0x9d00
9d003438:	0f40174a 	jal	9d005d28 <repl>
9d00343c:	24c6619c 	addiu	a2,a2,24988
9d003440:	0b400c26 	j	9d003098 <_fconvert+0x1c0>
9d003444:	2403ffff 	li	v1,-1
9d003448:	00008821 	move	s1,zero
9d00344c:	0b400c04 	j	9d003010 <_fconvert+0x138>
9d003450:	27b00218 	addiu	s0,sp,536
9d003454:	3c059d00 	lui	a1,0x9d00
9d003458:	24a56164 	addiu	a1,a1,24932
9d00345c:	24060004 	li	a2,4
9d003460:	0f40152f 	jal	9d0054bc <_outcnvrt>
9d003464:	02e03821 	move	a3,s7
9d003468:	0b400c2c 	j	9d0030b0 <_fconvert+0x1d8>
9d00346c:	8fbf025c 	lw	ra,604(sp)
9d003470:	00002821 	move	a1,zero
9d003474:	26130001 	addiu	s3,s0,1
9d003478:	2402002e 	li	v0,46
9d00347c:	0f401771 	jal	9d005dc4 <__eqsf2>
9d003480:	a2020000 	sb	v0,0(s0)
9d003484:	5440ffa3 	bnezl	v0,9d003314 <_fconvert+0x43c>
9d003488:	3c109d00 	lui	s0,0x9d00
9d00348c:	0b400c7f 	j	9d0031fc <_fconvert+0x324>
9d003490:	02729823 	subu	s3,s3,s2
9d003494:	0b400c7f 	j	9d0031fc <_fconvert+0x324>
9d003498:	02729823 	subu	s3,s3,s2
9d00349c:	0b400c58 	j	9d003160 <_fconvert+0x288>
9d0034a0:	02408021 	move	s0,s2
9d0034a4:	24020031 	li	v0,49
9d0034a8:	a3a20019 	sb	v0,25(sp)
9d0034ac:	27b20019 	addiu	s2,sp,25
9d0034b0:	0b400c7f 	j	9d0031fc <_fconvert+0x324>
9d0034b4:	02729823 	subu	s3,s3,s2

Disassembly of section .text.dp32mul:

9d0034b8 <__divdf3>:
9d0034b8:	00055040 000a5542 00054ac0 00047d42     @P..BU...J..B}..
9d0034c8:	012f4825 000442c0 3c0e8000 012e4825     %H/..B.....<%H..
9d0034d8:	00076840 000d6d42 000762c0 00067d42     @h..Bm...b..B}..
9d0034e8:	018f6025 00065ac0 018e6025 00a72826     %`...Z..%`..&(..
9d0034f8:	00ae2824 254fffff 2de107fe 102000cb     $(....O%...-.. .
9d003508:	00000000                                ....

9d00350c <Dlab1>:
9d00350c:	25afffff 	addiu	t7,t5,-1
9d003510:	2de107fe 	sltiu	at,t7,2046
9d003514:	102000f4 	beqz	at,9d0038e8 <DspecB>
9d003518:	00000000 	nop

9d00351c <Dlab2>:
9d00351c:	014d5023 	subu	t2,t2,t5
9d003520:	254a03ff 	addiu	t2,t2,1023
9d003524:	00084042 	srl	t0,t0,0x1
9d003528:	00097fc0 	sll	t7,t1,0x1f
9d00352c:	010f4025 	or	t0,t0,t7
9d003530:	00094842 	srl	t1,t1,0x1
9d003534:	000c3c02 	srl	a3,t4,0x10
9d003538:	00e001f4 	teq	a3,zero,0x7
9d00353c:	0127001b 	divu	zero,t1,a3
9d003540:	00007012 	mflo	t6
9d003544:	00004810 	mfhi	t1
9d003548:	3186ffff 	andi	a2,t4,0xffff
9d00354c:	00ce0019 	multu	a2,t6
9d003550:	00002012 	mflo	a0
9d003554:	00094c00 	sll	t1,t1,0x10
9d003558:	00087c02 	srl	t7,t0,0x10
9d00355c:	012f4825 	or	t1,t1,t7
9d003560:	0124782b 	sltu	t7,t1,a0
9d003564:	11e00006 	beqz	t7,9d003580 <i20>
9d003568:	01244823 	subu	t1,t1,a0

9d00356c <b21>:
9d00356c:	25ceffff 	addiu	t6,t6,-1
9d003570:	012c4821 	addu	t1,t1,t4
9d003574:	012c082b 	sltu	at,t1,t4
9d003578:	1020fffc 	beqz	at,9d00356c <b21>
9d00357c:	00000000 	nop

9d003580 <i20>:
9d003580:	00e001f4 	teq	a3,zero,0x7
9d003584:	0127001b 	divu	zero,t1,a3
9d003588:	00003812 	mflo	a3
9d00358c:	00004810 	mfhi	t1
9d003590:	00c70019 	multu	a2,a3
9d003594:	00002012 	mflo	a0
9d003598:	00094c00 	sll	t1,t1,0x10
9d00359c:	310fffff 	andi	t7,t0,0xffff
9d0035a0:	012f4825 	or	t1,t1,t7
9d0035a4:	0124782b 	sltu	t7,t1,a0
9d0035a8:	11e00006 	beqz	t7,9d0035c4 <i22>
9d0035ac:	01244823 	subu	t1,t1,a0

9d0035b0 <b23>:
9d0035b0:	24e7ffff 	addiu	a3,a3,-1
9d0035b4:	012c4821 	addu	t1,t1,t4
9d0035b8:	012c082b 	sltu	at,t1,t4
9d0035bc:	1020fffc 	beqz	at,9d0035b0 <b23>
9d0035c0:	00000000 	nop

9d0035c4 <i22>:
9d0035c4:	000e7400 	sll	t6,t6,0x10
9d0035c8:	01c77021 	addu	t6,t6,a3
9d0035cc:	01cb0019 	multu	t6,t3
9d0035d0:	00003812 	mflo	a3
9d0035d4:	00002010 	mfhi	a0
9d0035d8:	24080000 	li	t0,0
9d0035dc:	0107782b 	sltu	t7,t0,a3
9d0035e0:	01074023 	subu	t0,t0,a3
9d0035e4:	012f102b 	sltu	v0,t1,t7
9d0035e8:	012f4823 	subu	t1,t1,t7
9d0035ec:	0124782b 	sltu	t7,t1,a0
9d0035f0:	01e27825 	or	t7,t7,v0
9d0035f4:	11e0000b 	beqz	t7,9d003624 <i24>
9d0035f8:	01244823 	subu	t1,t1,a0

9d0035fc <Dlab3>:
9d0035fc:	25ceffff 	addiu	t6,t6,-1
9d003600:	010b4021 	addu	t0,t0,t3
9d003604:	010b782b 	sltu	t7,t0,t3
9d003608:	012c4821 	addu	t1,t1,t4
9d00360c:	012f4821 	addu	t1,t1,t7
9d003610:	112c0002 	beq	t1,t4,9d00361c <L31>
9d003614:	00000000 	nop
9d003618:	012c782b 	sltu	t7,t1,t4

9d00361c <L31>:
9d00361c:	11e0fff7 	beqz	t7,9d0035fc <Dlab3>
9d003620:	00000000 	nop

9d003624 <i24>:
9d003624:	152c0006 	bne	t1,t4,9d003640 <i25>
9d003628:	00000000 	nop
9d00362c:	000b2025 	or	a0,zero,t3
9d003630:	00084825 	or	t1,zero,t0
9d003634:	240d0000 	li	t5,0
9d003638:	1000002a 	b	9d0036e4 <e25>
9d00363c:	000d3825 	or	a3,zero,t5

9d003640 <i25>:
9d003640:	000c3c02 	srl	a3,t4,0x10
9d003644:	00e001f4 	teq	a3,zero,0x7
9d003648:	0127001b 	divu	zero,t1,a3
9d00364c:	00006812 	mflo	t5
9d003650:	00004810 	mfhi	t1
9d003654:	3186ffff 	andi	a2,t4,0xffff
9d003658:	00cd0019 	multu	a2,t5
9d00365c:	00002012 	mflo	a0
9d003660:	00094c00 	sll	t1,t1,0x10
9d003664:	00087c02 	srl	t7,t0,0x10
9d003668:	012f4825 	or	t1,t1,t7
9d00366c:	0124782b 	sltu	t7,t1,a0
9d003670:	11e00006 	beqz	t7,9d00368c <i26>
9d003674:	01244823 	subu	t1,t1,a0

9d003678 <b27>:
9d003678:	25adffff 	addiu	t5,t5,-1
9d00367c:	012c4821 	addu	t1,t1,t4
9d003680:	012c082b 	sltu	at,t1,t4
9d003684:	1020fffc 	beqz	at,9d003678 <b27>
9d003688:	00000000 	nop

9d00368c <i26>:
9d00368c:	00e001f4 	teq	a3,zero,0x7
9d003690:	0127001b 	divu	zero,t1,a3
9d003694:	00003812 	mflo	a3
9d003698:	00004810 	mfhi	t1
9d00369c:	00c70019 	multu	a2,a3
9d0036a0:	00002012 	mflo	a0
9d0036a4:	00094c00 	sll	t1,t1,0x10
9d0036a8:	310fffff 	andi	t7,t0,0xffff
9d0036ac:	012f4825 	or	t1,t1,t7
9d0036b0:	0124782b 	sltu	t7,t1,a0
9d0036b4:	11e00006 	beqz	t7,9d0036d0 <i28>
9d0036b8:	01244823 	subu	t1,t1,a0

9d0036bc <b29>:
9d0036bc:	24e7ffff 	addiu	a3,a3,-1
9d0036c0:	012c4821 	addu	t1,t1,t4
9d0036c4:	012c082b 	sltu	at,t1,t4
9d0036c8:	1020fffc 	beqz	at,9d0036bc <b29>
9d0036cc:	00000000 	nop

9d0036d0 <i28>:
9d0036d0:	000d6c00 	sll	t5,t5,0x10
9d0036d4:	01a76821 	addu	t5,t5,a3
9d0036d8:	01ab0019 	multu	t5,t3
9d0036dc:	00003812 	mflo	a3
9d0036e0:	00002010 	mfhi	a0

9d0036e4 <e25>:
9d0036e4:	24080000 	li	t0,0
9d0036e8:	0107782b 	sltu	t7,t0,a3
9d0036ec:	01074023 	subu	t0,t0,a3
9d0036f0:	012f102b 	sltu	v0,t1,t7
9d0036f4:	012f4823 	subu	t1,t1,t7
9d0036f8:	0124782b 	sltu	t7,t1,a0
9d0036fc:	01e27825 	or	t7,t7,v0
9d003700:	11e0000b 	beqz	t7,9d003730 <i30>
9d003704:	01244823 	subu	t1,t1,a0

9d003708 <Dlab4>:
9d003708:	25adffff 	addiu	t5,t5,-1
9d00370c:	010b4021 	addu	t0,t0,t3
9d003710:	010b782b 	sltu	t7,t0,t3
9d003714:	012c4821 	addu	t1,t1,t4
9d003718:	012f4821 	addu	t1,t1,t7
9d00371c:	112c0002 	beq	t1,t4,9d003728 <L32>
9d003720:	00000000 	nop
9d003724:	012c782b 	sltu	t7,t1,t4

9d003728 <L32>:
9d003728:	11e0fff7 	beqz	t7,9d003708 <Dlab4>
9d00372c:	00000000 	nop

9d003730 <i30>:
9d003730:	05c00006 	bltz	t6,9d00374c <i31>
9d003734:	00000000 	nop
9d003738:	01a0782a 	slt	t7,t5,zero
9d00373c:	01ad6821 	addu	t5,t5,t5
9d003740:	01ce7021 	addu	t6,t6,t6
9d003744:	01cf7021 	addu	t6,t6,t7
9d003748:	254affff 	addiu	t2,t2,-1

9d00374c <i31>:
9d00374c:	01287825 	or	t7,t1,t0
9d003750:	11e00002 	beqz	t7,9d00375c <i32>
9d003754:	00000000 	nop
9d003758:	35ad0001 	ori	t5,t5,0x1

9d00375c <i32>:
9d00375c:	000e4825 	or	t1,zero,t6
9d003760:	000d4025 	or	t0,zero,t5
9d003764:	254fffff 	addiu	t7,t2,-1
9d003768:	2de107fe 	sltiu	at,t7,2046
9d00376c:	10200015 	beqz	at,9d0037c4 <Doveund>
9d003770:	00000000 	nop
9d003774:	25080400 	addiu	t0,t0,1024
9d003778:	2d0f0400 	sltiu	t7,t0,1024
9d00377c:	012f4821 	addu	t1,t1,t7
9d003780:	012f782b 	sltu	t7,t1,t7
9d003784:	014f5021 	addu	t2,t2,t7

9d003788 <Dlab8>:
9d003788:	00087ac2 	srl	t7,t0,0xb
9d00378c:	31ef0001 	andi	t7,t7,0x1
9d003790:	010f4023 	subu	t0,t0,t7
9d003794:	000822c2 	srl	a0,t0,0xb
9d003798:	00097d40 	sll	t7,t1,0x15
9d00379c:	008f2025 	or	a0,a0,t7
9d0037a0:	00097840 	sll	t7,t1,0x1
9d0037a4:	000f7b02 	srl	t7,t7,0xc
9d0037a8:	00af2825 	or	a1,a1,t7
9d0037ac:	000a7d00 	sll	t7,t2,0x14
9d0037b0:	00af2825 	or	a1,a1,t7

9d0037b4 <Dret>:
9d0037b4:	00041025 	or	v0,zero,a0
9d0037b8:	00051825 	or	v1,zero,a1

9d0037bc <D999>:
9d0037bc:	03e00008 	jr	ra
9d0037c0:	00000000 	nop

9d0037c4 <Doveund>:
9d0037c4:	1d400044 	bgtz	t2,9d0038d8 <Dinf>
9d0037c8:	00000000 	nop
9d0037cc:	240e0001 	li	t6,1
9d0037d0:	01ca7023 	subu	t6,t6,t2

9d0037d4 <L33>:
9d0037d4:	2dc10020 	sltiu	at,t6,32
9d0037d8:	14200007 	bnez	at,9d0037f8 <L34>
9d0037dc:	00000000 	nop
9d0037e0:	21ceffe0 	addi	t6,t6,-32
9d0037e4:	0008202b 	sltu	a0,zero,t0
9d0037e8:	1009000d 	beq	zero,t1,9d003820 <L35>
9d0037ec:	01244025 	or	t0,t1,a0
9d0037f0:	1000fff8 	b	9d0037d4 <L33>
9d0037f4:	34090000 	li	t1,0x0

9d0037f8 <L34>:
9d0037f8:	11c00009 	beqz	t6,9d003820 <L35>
9d0037fc:	00000000 	nop
9d003800:	000e3022 	neg	a2,t6
9d003804:	00c82004 	sllv	a0,t0,a2
9d003808:	00c93004 	sllv	a2,t1,a2
9d00380c:	01c84006 	srlv	t0,t0,t6
9d003810:	01c94806 	srlv	t1,t1,t6
9d003814:	10800002 	beqz	a0,9d003820 <L35>
9d003818:	00c84025 	or	t0,a2,t0
9d00381c:	35080002 	ori	t0,t0,0x2

9d003820 <L35>:
9d003820:	25080400 	addiu	t0,t0,1024
9d003824:	2d0f0400 	sltiu	t7,t0,1024
9d003828:	012f4821 	addu	t1,t1,t7
9d00382c:	1000ffd6 	b	9d003788 <Dlab8>
9d003830:	000957c2 	srl	t2,t1,0x1f

9d003834 <DspecA>:
9d003834:	0100782a 	slt	t7,t0,zero
9d003838:	01084021 	addu	t0,t0,t0
9d00383c:	01294821 	addu	t1,t1,t1
9d003840:	15400017 	bnez	t2,9d0038a0 <i33>
9d003844:	012f4821 	addu	t1,t1,t7
9d003848:	01287825 	or	t7,t1,t0
9d00384c:	11e00014 	beqz	t7,9d0038a0 <i33>
9d003850:	00000000 	nop
9d003854:	15200008 	bnez	t1,9d003878 <L36>
9d003858:	00000000 	nop
9d00385c:	15000003 	bnez	t0,9d00386c <L37>
9d003860:	00000000 	nop
9d003864:	1000ff29 	b	9d00350c <Dlab1>
9d003868:	240a0000 	li	t2,0

9d00386c <L37>:
9d00386c:	01004825 	move	t1,t0
9d003870:	24080000 	li	t0,0
9d003874:	254affe0 	addiu	t2,t2,-32

9d003878 <L36>:
9d003878:	712e7020 	clz	t6,t1
9d00387c:	11c0ff23 	beqz	t6,9d00350c <Dlab1>
9d003880:	00000000 	nop
9d003884:	014e5023 	subu	t2,t2,t6
9d003888:	000e3022 	neg	a2,t6
9d00388c:	00c83006 	srlv	a2,t0,a2
9d003890:	01c84004 	sllv	t0,t0,t6
9d003894:	01c94804 	sllv	t1,t1,t6
9d003898:	1000ff1c 	b	9d00350c <Dlab1>
9d00389c:	01264825 	or	t1,t1,a2

9d0038a0 <i33>:
9d0038a0:	154d0005 	bne	t2,t5,9d0038b8 <i35>
9d0038a4:	00000000 	nop
9d0038a8:	000c7840 	sll	t7,t4,0x1
9d0038ac:	01eb7825 	or	t7,t7,t3
9d0038b0:	11e0002b 	beqz	t7,9d003960 <Dnan>
9d0038b4:	00000000 	nop

9d0038b8 <i35>:
9d0038b8:	240107ff 	li	at,2047
9d0038bc:	11a1000a 	beq	t5,at,9d0038e8 <DspecB>
9d0038c0:	00000000 	nop
9d0038c4:	1140ffbb 	beqz	t2,9d0037b4 <Dret>
9d0038c8:	00000000 	nop
9d0038cc:	01287825 	or	t7,t1,t0
9d0038d0:	15e00023 	bnez	t7,9d003960 <Dnan>
9d0038d4:	00000000 	nop

9d0038d8 <Dinf>:
9d0038d8:	3c017ff0 	lui	at,0x7ff0
9d0038dc:	00a12825 	or	a1,a1,at
9d0038e0:	1000ffb4 	b	9d0037b4 <Dret>
9d0038e4:	24040000 	li	a0,0

9d0038e8 <DspecB>:
9d0038e8:	0160782a 	slt	t7,t3,zero
9d0038ec:	016b5821 	addu	t3,t3,t3
9d0038f0:	018c6021 	addu	t4,t4,t4
9d0038f4:	15a00017 	bnez	t5,9d003954 <i36>
9d0038f8:	018f6021 	addu	t4,t4,t7
9d0038fc:	018b7825 	or	t7,t4,t3
9d003900:	11e0fff5 	beqz	t7,9d0038d8 <Dinf>
9d003904:	00000000 	nop
9d003908:	15800008 	bnez	t4,9d00392c <L39>
9d00390c:	00000000 	nop
9d003910:	15600003 	bnez	t3,9d003920 <L40>
9d003914:	00000000 	nop
9d003918:	1000ff00 	b	9d00351c <Dlab2>
9d00391c:	240d0000 	li	t5,0

9d003920 <L40>:
9d003920:	01606025 	move	t4,t3
9d003924:	240b0000 	li	t3,0
9d003928:	25adffe0 	addiu	t5,t5,-32

9d00392c <L39>:
9d00392c:	718e7020 	clz	t6,t4
9d003930:	11c0fefa 	beqz	t6,9d00351c <Dlab2>
9d003934:	00000000 	nop
9d003938:	01ae6823 	subu	t5,t5,t6
9d00393c:	000e3022 	neg	a2,t6
9d003940:	00cb3006 	srlv	a2,t3,a2
9d003944:	01cb5804 	sllv	t3,t3,t6
9d003948:	01cc6004 	sllv	t4,t4,t6
9d00394c:	1000fef3 	b	9d00351c <Dlab2>
9d003950:	01866025 	or	t4,t4,a2

9d003954 <i36>:
9d003954:	018b7825 	or	t7,t4,t3
9d003958:	11e00002 	beqz	t7,9d003964 <i38>
9d00395c:	00000000 	nop

9d003960 <Dnan>:
9d003960:	3c05fff8 	lui	a1,0xfff8

9d003964 <i38>:
9d003964:	1000ff93 	b	9d0037b4 <Dret>
9d003968:	24040000 	li	a0,0
9d00396c:	00000000 	nop

Disassembly of section .text:

9d003970 <__umoddi3>:
9d003970:	00c04021 	move	t0,a2
9d003974:	00804821 	move	t1,a0
9d003978:	14e0003b 	bnez	a3,9d003a68 <.LBE15+0xc>
9d00397c:	00a01821 	move	v1,a1
9d003980:	00a6102b 	sltu	v0,a1,a2
9d003984:	10400048 	beqz	v0,9d003aa8 <.LBE16+0x8>
9d003988:	70c21020 	clz	v0,a2
9d00398c:	50400008 	beqzl	v0,9d0039b0 <.LBB15+0x4>
9d003990:	00083402 	srl	a2,t0,0x10
9d003994:	00021823 	negu	v1,v0
9d003998:	00452804 	sllv	a1,a1,v0
9d00399c:	00641806 	srlv	v1,a0,v1
9d0039a0:	00464004 	sllv	t0,a2,v0
9d0039a4:	00651825 	or	v1,v1,a1
9d0039a8:	00444804 	sllv	t1,a0,v0

9d0039ac <.LBB15>:
9d0039ac:	00083402 	srl	a2,t0,0x10
9d0039b0:	0066001b 	divu	zero,v1,a2
9d0039b4:	00c001f4 	teq	a2,zero,0x7
9d0039b8:	00002010 	mfhi	a0
9d0039bc:	00005812 	mflo	t3
9d0039c0:	310cffff 	andi	t4,t0,0xffff
9d0039c4:	00095402 	srl	t2,t1,0x10
9d0039c8:	716c5802 	mul	t3,t3,t4
9d0039cc:	00042400 	sll	a0,a0,0x10
9d0039d0:	008a5025 	or	t2,a0,t2
9d0039d4:	014b682b 	sltu	t5,t2,t3
9d0039d8:	0066001b 	divu	zero,v1,a2
9d0039dc:	00c001f4 	teq	a2,zero,0x7
9d0039e0:	51a00009 	beqzl	t5,9d003a08 <.LBB15+0x5c>
9d0039e4:	014b5023 	subu	t2,t2,t3
9d0039e8:	01485021 	addu	t2,t2,t0
9d0039ec:	0148182b 	sltu	v1,t2,t0
9d0039f0:	54600005 	bnezl	v1,9d003a08 <.LBB15+0x5c>
9d0039f4:	014b5023 	subu	t2,t2,t3
9d0039f8:	014b202b 	sltu	a0,t2,t3
9d0039fc:	01481821 	addu	v1,t2,t0
9d003a00:	0064500b 	movn	t2,v1,a0
9d003a04:	014b5023 	subu	t2,t2,t3
9d003a08:	3123ffff 	andi	v1,t1,0xffff
9d003a0c:	0146001b 	divu	zero,t2,a2
9d003a10:	00c001f4 	teq	a2,zero,0x7
9d003a14:	00004810 	mfhi	t1
9d003a18:	00002012 	mflo	a0
9d003a1c:	708c2002 	mul	a0,a0,t4
9d003a20:	00094c00 	sll	t1,t1,0x10
9d003a24:	01234825 	or	t1,t1,v1
9d003a28:	0124182b 	sltu	v1,t1,a0
9d003a2c:	0146001b 	divu	zero,t2,a2
9d003a30:	00c001f4 	teq	a2,zero,0x7
9d003a34:	50600009 	beqzl	v1,9d003a5c <.LBE15>
9d003a38:	01244823 	subu	t1,t1,a0
9d003a3c:	01284821 	addu	t1,t1,t0
9d003a40:	0128182b 	sltu	v1,t1,t0
9d003a44:	54600005 	bnezl	v1,9d003a5c <.LBE15>
9d003a48:	01244823 	subu	t1,t1,a0
9d003a4c:	0124182b 	sltu	v1,t1,a0
9d003a50:	01284021 	addu	t0,t1,t0
9d003a54:	0103480b 	movn	t1,t0,v1
9d003a58:	01244823 	subu	t1,t1,a0

9d003a5c <.LBE15>:
9d003a5c:	00491006 	srlv	v0,t1,v0
9d003a60:	03e00008 	jr	ra
9d003a64:	00001821 	move	v1,zero
9d003a68:	00a7102b 	sltu	v0,a1,a3
9d003a6c:	14400047 	bnez	v0,9d003b8c <.LBE17+0xc>
9d003a70:	70ea5020 	clz	t2,a3
9d003a74:	15400048 	bnez	t2,9d003b98 <.LBE17+0x18>
9d003a78:	240b0020 	li	t3,32
9d003a7c:	00e5102b 	sltu	v0,a3,a1
9d003a80:	14400005 	bnez	v0,9d003a98 <.LBB16+0x4>
9d003a84:	00861023 	subu	v0,a0,a2
9d003a88:	0086402b 	sltu	t0,a0,a2
9d003a8c:	15000089 	bnez	t0,9d003cb4 <.LBE24+0x10>
9d003a90:	00801021 	move	v0,a0

9d003a94 <.LBB16>:
9d003a94:	00861023 	subu	v0,a0,a2
9d003a98:	00a72823 	subu	a1,a1,a3
9d003a9c:	0082202b 	sltu	a0,a0,v0

9d003aa0 <.LBE16>:
9d003aa0:	03e00008 	jr	ra
9d003aa4:	00a41823 	subu	v1,a1,a0
9d003aa8:	14c00006 	bnez	a2,9d003ac4 <.LBE16+0x24>
9d003aac:	71021020 	clz	v0,t0
9d003ab0:	24020001 	li	v0,1
9d003ab4:	0046001b 	divu	zero,v0,a2
9d003ab8:	00c001f4 	teq	a2,zero,0x7
9d003abc:	00004012 	mflo	t0
9d003ac0:	71021020 	clz	v0,t0
9d003ac4:	5440007d 	bnezl	v0,9d003cbc <.LBE24+0x18>
9d003ac8:	00484004 	sllv	t0,t0,v0
9d003acc:	00a82823 	subu	a1,a1,t0
9d003ad0:	00081c02 	srl	v1,t0,0x10
9d003ad4:	3107ffff 	andi	a3,t0,0xffff

9d003ad8 <.LBB17>:
9d003ad8:	00092402 	srl	a0,t1,0x10
9d003adc:	00a3001b 	divu	zero,a1,v1
9d003ae0:	006001f4 	teq	v1,zero,0x7
9d003ae4:	00005010 	mfhi	t2
9d003ae8:	00003012 	mflo	a2
9d003aec:	70c73002 	mul	a2,a2,a3
9d003af0:	000a5400 	sll	t2,t2,0x10
9d003af4:	01442025 	or	a0,t2,a0
9d003af8:	0086502b 	sltu	t2,a0,a2
9d003afc:	00a3001b 	divu	zero,a1,v1
9d003b00:	006001f4 	teq	v1,zero,0x7
9d003b04:	51400009 	beqzl	t2,9d003b2c <.LBB17+0x54>
9d003b08:	00862023 	subu	a0,a0,a2
9d003b0c:	00882021 	addu	a0,a0,t0
9d003b10:	0088282b 	sltu	a1,a0,t0
9d003b14:	54a00005 	bnezl	a1,9d003b2c <.LBB17+0x54>
9d003b18:	00862023 	subu	a0,a0,a2
9d003b1c:	0086502b 	sltu	t2,a0,a2
9d003b20:	00882821 	addu	a1,a0,t0
9d003b24:	00aa200b 	movn	a0,a1,t2
9d003b28:	00862023 	subu	a0,a0,a2
9d003b2c:	3126ffff 	andi	a2,t1,0xffff
9d003b30:	0083001b 	divu	zero,a0,v1
9d003b34:	006001f4 	teq	v1,zero,0x7
9d003b38:	00004810 	mfhi	t1
9d003b3c:	00002812 	mflo	a1
9d003b40:	70a72802 	mul	a1,a1,a3
9d003b44:	00094c00 	sll	t1,t1,0x10
9d003b48:	01264825 	or	t1,t1,a2
9d003b4c:	0125302b 	sltu	a2,t1,a1
9d003b50:	0083001b 	divu	zero,a0,v1
9d003b54:	006001f4 	teq	v1,zero,0x7
9d003b58:	50c00009 	beqzl	a2,9d003b80 <.LBE17>
9d003b5c:	01254823 	subu	t1,t1,a1
9d003b60:	01284821 	addu	t1,t1,t0
9d003b64:	0128182b 	sltu	v1,t1,t0
9d003b68:	54600005 	bnezl	v1,9d003b80 <.LBE17>
9d003b6c:	01254823 	subu	t1,t1,a1
9d003b70:	0125182b 	sltu	v1,t1,a1
9d003b74:	01284021 	addu	t0,t1,t0
9d003b78:	0103480b 	movn	t1,t0,v1
9d003b7c:	01254823 	subu	t1,t1,a1

9d003b80 <.LBE17>:
9d003b80:	00491006 	srlv	v0,t1,v0
9d003b84:	03e00008 	jr	ra
9d003b88:	00001821 	move	v1,zero
9d003b8c:	00801021 	move	v0,a0
9d003b90:	03e00008 	jr	ra
9d003b94:	00a01821 	move	v1,a1
9d003b98:	016a5823 	subu	t3,t3,t2
9d003b9c:	01473804 	sllv	a3,a3,t2
9d003ba0:	01661006 	srlv	v0,a2,t3
9d003ba4:	00473825 	or	a3,v0,a3
9d003ba8:	01656806 	srlv	t5,a1,t3
9d003bac:	00074c02 	srl	t1,a3,0x10
9d003bb0:	01a9001b 	divu	zero,t5,t1
9d003bb4:	012001f4 	teq	t1,zero,0x7
9d003bb8:	00006010 	mfhi	t4
9d003bbc:	00001812 	mflo	v1
9d003bc0:	30eeffff 	andi	t6,a3,0xffff
9d003bc4:	01452804 	sllv	a1,a1,t2
9d003bc8:	01641006 	srlv	v0,a0,t3
9d003bcc:	00451025 	or	v0,v0,a1
9d003bd0:	00022c02 	srl	a1,v0,0x10
9d003bd4:	01463004 	sllv	a2,a2,t2
9d003bd8:	00004012 	mflo	t0
9d003bdc:	706e7802 	mul	t7,v1,t6
9d003be0:	000c6400 	sll	t4,t4,0x10
9d003be4:	01856025 	or	t4,t4,a1
9d003be8:	018f282b 	sltu	a1,t4,t7
9d003bec:	01a9001b 	divu	zero,t5,t1
9d003bf0:	012001f4 	teq	t1,zero,0x7
9d003bf4:	10a0000a 	beqz	a1,9d003c20 <.LBE17+0xa0>
9d003bf8:	01442004 	sllv	a0,a0,t2
9d003bfc:	01876021 	addu	t4,t4,a3
9d003c00:	0187282b 	sltu	a1,t4,a3
9d003c04:	14a00006 	bnez	a1,9d003c20 <.LBE17+0xa0>
9d003c08:	2468ffff 	addiu	t0,v1,-1
9d003c0c:	018f282b 	sltu	a1,t4,t7
9d003c10:	50a00004 	beqzl	a1,9d003c24 <.LBE17+0xa4>
9d003c14:	018f6023 	subu	t4,t4,t7
9d003c18:	2468fffe 	addiu	t0,v1,-2
9d003c1c:	01876021 	addu	t4,t4,a3
9d003c20:	018f6023 	subu	t4,t4,t7
9d003c24:	3042ffff 	andi	v0,v0,0xffff
9d003c28:	0189001b 	divu	zero,t4,t1
9d003c2c:	012001f4 	teq	t1,zero,0x7
9d003c30:	00002810 	mfhi	a1
9d003c34:	00001812 	mflo	v1
9d003c38:	00006812 	mflo	t5
9d003c3c:	706e7002 	mul	t6,v1,t6
9d003c40:	00052c00 	sll	a1,a1,0x10
9d003c44:	00a21025 	or	v0,a1,v0
9d003c48:	004e282b 	sltu	a1,v0,t6
9d003c4c:	0189001b 	divu	zero,t4,t1
9d003c50:	012001f4 	teq	t1,zero,0x7
9d003c54:	50a00006 	beqzl	a1,9d003c70 <.LBE17+0xf0>
9d003c58:	00084400 	sll	t0,t0,0x10
9d003c5c:	00471021 	addu	v0,v0,a3
9d003c60:	0047282b 	sltu	a1,v0,a3
9d003c64:	10a0004c 	beqz	a1,9d003d98 <.LBE25>
9d003c68:	246dffff 	addiu	t5,v1,-1
9d003c6c:	00084400 	sll	t0,t0,0x10
9d003c70:	01a84025 	or	t0,t5,t0
9d003c74:	004e1023 	subu	v0,v0,t6
9d003c78:	01060019 	multu	t0,a2
9d003c7c:	00004810 	mfhi	t1
9d003c80:	0049182b 	sltu	v1,v0,t1
9d003c84:	1460003e 	bnez	v1,9d003d80 <.LBB25>
9d003c88:	00004012 	mflo	t0
9d003c8c:	1049004b 	beq	v0,t1,9d003dbc <.LBE25+0x24>
9d003c90:	00491823 	subu	v1,v0,t1
9d003c94:	00003012 	mflo	a2

9d003c98 <.LBB24>:
9d003c98:	00863023 	subu	a2,a0,a2
9d003c9c:	0086202b 	sltu	a0,a0,a2
9d003ca0:	00641823 	subu	v1,v1,a0

9d003ca4 <.LBE24>:
9d003ca4:	01631004 	sllv	v0,v1,t3
9d003ca8:	01463006 	srlv	a2,a2,t2
9d003cac:	00461025 	or	v0,v0,a2
9d003cb0:	01431806 	srlv	v1,v1,t2
9d003cb4:	03e00008 	jr	ra
9d003cb8:	00000000 	nop
9d003cbc:	24090020 	li	t1,32
9d003cc0:	01224823 	subu	t1,t1,v0
9d003cc4:	01255006 	srlv	t2,a1,t1
9d003cc8:	00081c02 	srl	v1,t0,0x10
9d003ccc:	0143001b 	divu	zero,t2,v1
9d003cd0:	006001f4 	teq	v1,zero,0x7
9d003cd4:	00003010 	mfhi	a2
9d003cd8:	00005812 	mflo	t3
9d003cdc:	3107ffff 	andi	a3,t0,0xffff
9d003ce0:	00452804 	sllv	a1,a1,v0
9d003ce4:	01244806 	srlv	t1,a0,t1
9d003ce8:	01252825 	or	a1,t1,a1
9d003cec:	00056402 	srl	t4,a1,0x10
9d003cf0:	00444804 	sllv	t1,a0,v0
9d003cf4:	71675802 	mul	t3,t3,a3
9d003cf8:	00063400 	sll	a2,a2,0x10
9d003cfc:	01863025 	or	a2,t4,a2
9d003d00:	00cb202b 	sltu	a0,a2,t3
9d003d04:	0143001b 	divu	zero,t2,v1
9d003d08:	006001f4 	teq	v1,zero,0x7
9d003d0c:	50800006 	beqzl	a0,9d003d28 <.LBE24+0x84>
9d003d10:	00cb3023 	subu	a2,a2,t3
9d003d14:	00c83021 	addu	a2,a2,t0
9d003d18:	00c8202b 	sltu	a0,a2,t0
9d003d1c:	10800024 	beqz	a0,9d003db0 <.LBE25+0x18>
9d003d20:	00cb502b 	sltu	t2,a2,t3
9d003d24:	00cb3023 	subu	a2,a2,t3
9d003d28:	30aaffff 	andi	t2,a1,0xffff
9d003d2c:	00c3001b 	divu	zero,a2,v1
9d003d30:	006001f4 	teq	v1,zero,0x7
9d003d34:	00002010 	mfhi	a0
9d003d38:	00002812 	mflo	a1
9d003d3c:	70a72802 	mul	a1,a1,a3
9d003d40:	00042400 	sll	a0,a0,0x10
9d003d44:	008a2025 	or	a0,a0,t2
9d003d48:	0085502b 	sltu	t2,a0,a1
9d003d4c:	00c3001b 	divu	zero,a2,v1
9d003d50:	006001f4 	teq	v1,zero,0x7
9d003d54:	5140ff60 	beqzl	t2,9d003ad8 <.LBB17>
9d003d58:	00852823 	subu	a1,a0,a1
9d003d5c:	00882021 	addu	a0,a0,t0
9d003d60:	0088302b 	sltu	a2,a0,t0
9d003d64:	54c0ff5c 	bnezl	a2,9d003ad8 <.LBB17>
9d003d68:	00852823 	subu	a1,a0,a1
9d003d6c:	0085502b 	sltu	t2,a0,a1
9d003d70:	00883021 	addu	a2,a0,t0
9d003d74:	00ca200b 	movn	a0,a2,t2
9d003d78:	0b400eb6 	j	9d003ad8 <.LBB17>
9d003d7c:	00852823 	subu	a1,a0,a1

9d003d80 <.LBB25>:
9d003d80:	01063023 	subu	a2,t0,a2
9d003d84:	01271823 	subu	v1,t1,a3
9d003d88:	0106402b 	sltu	t0,t0,a2
9d003d8c:	00681823 	subu	v1,v1,t0
9d003d90:	0b400f26 	j	9d003c98 <.LBB24>
9d003d94:	00431823 	subu	v1,v0,v1

9d003d98 <.LBE25>:
9d003d98:	004e282b 	sltu	a1,v0,t6
9d003d9c:	50a0ffb4 	beqzl	a1,9d003c70 <.LBE17+0xf0>
9d003da0:	00084400 	sll	t0,t0,0x10
9d003da4:	246dfffe 	addiu	t5,v1,-2
9d003da8:	0b400f1b 	j	9d003c6c <.LBE17+0xec>
9d003dac:	00471021 	addu	v0,v0,a3
9d003db0:	00c82021 	addu	a0,a2,t0
9d003db4:	0b400f49 	j	9d003d24 <.LBE24+0x80>
9d003db8:	008a300b 	movn	a2,a0,t2
9d003dbc:	0088182b 	sltu	v1,a0,t0
9d003dc0:	5460fff0 	bnezl	v1,9d003d84 <.LBB25+0x4>
9d003dc4:	01063023 	subu	a2,t0,a2
9d003dc8:	00003012 	mflo	a2
9d003dcc:	0b400f26 	j	9d003c98 <.LBB24>
9d003dd0:	00001821 	move	v1,zero

9d003dd4 <__udivdi3>:
9d003dd4:	00c04021 	move	t0,a2
9d003dd8:	00801021 	move	v0,a0
9d003ddc:	14e0003f 	bnez	a3,9d003edc <.LBE15+0x8>
9d003de0:	00a04821 	move	t1,a1
9d003de4:	00a6182b 	sltu	v1,a1,a2
9d003de8:	10600047 	beqz	v1,9d003f08 <.LBE15+0x34>
9d003dec:	70c31820 	clz	v1,a2
9d003df0:	50600008 	beqzl	v1,9d003e14 <.LBB15+0x4>
9d003df4:	00081c02 	srl	v1,t0,0x10
9d003df8:	00034823 	negu	t1,v1
9d003dfc:	00652804 	sllv	a1,a1,v1
9d003e00:	01244806 	srlv	t1,a0,t1
9d003e04:	00664004 	sllv	t0,a2,v1
9d003e08:	01254825 	or	t1,t1,a1
9d003e0c:	00641004 	sllv	v0,a0,v1

9d003e10 <.LBB15>:
9d003e10:	00081c02 	srl	v1,t0,0x10
9d003e14:	0123001b 	divu	zero,t1,v1
9d003e18:	006001f4 	teq	v1,zero,0x7
9d003e1c:	00006010 	mfhi	t4
9d003e20:	00005812 	mflo	t3
9d003e24:	310affff 	andi	t2,t0,0xffff
9d003e28:	00022402 	srl	a0,v0,0x10
9d003e2c:	00003012 	mflo	a2
9d003e30:	716a3802 	mul	a3,t3,t2
9d003e34:	000c6400 	sll	t4,t4,0x10
9d003e38:	01842025 	or	a0,t4,a0
9d003e3c:	0087602b 	sltu	t4,a0,a3
9d003e40:	0123001b 	divu	zero,t1,v1
9d003e44:	006001f4 	teq	v1,zero,0x7
9d003e48:	1180000b 	beqz	t4,9d003e78 <.LBB15+0x68>
9d003e4c:	00872823 	subu	a1,a0,a3
9d003e50:	00882021 	addu	a0,a0,t0
9d003e54:	0088282b 	sltu	a1,a0,t0
9d003e58:	14a00006 	bnez	a1,9d003e74 <.LBB15+0x64>
9d003e5c:	2566ffff 	addiu	a2,t3,-1
9d003e60:	0087282b 	sltu	a1,a0,a3
9d003e64:	10a00004 	beqz	a1,9d003e78 <.LBB15+0x68>
9d003e68:	00872823 	subu	a1,a0,a3
9d003e6c:	2566fffe 	addiu	a2,t3,-2
9d003e70:	00882021 	addu	a0,a0,t0
9d003e74:	00872823 	subu	a1,a0,a3
9d003e78:	3042ffff 	andi	v0,v0,0xffff
9d003e7c:	00a3001b 	divu	zero,a1,v1
9d003e80:	006001f4 	teq	v1,zero,0x7
9d003e84:	00004810 	mfhi	t1
9d003e88:	00003812 	mflo	a3
9d003e8c:	00002012 	mflo	a0
9d003e90:	70ea5002 	mul	t2,a3,t2
9d003e94:	00094c00 	sll	t1,t1,0x10
9d003e98:	01221025 	or	v0,t1,v0
9d003e9c:	004a482b 	sltu	t1,v0,t2
9d003ea0:	00a3001b 	divu	zero,a1,v1
9d003ea4:	006001f4 	teq	v1,zero,0x7
9d003ea8:	51200009 	beqzl	t1,9d003ed0 <.LBB15+0xc0>
9d003eac:	00061400 	sll	v0,a2,0x10
9d003eb0:	00481021 	addu	v0,v0,t0
9d003eb4:	0048402b 	sltu	t0,v0,t0
9d003eb8:	15000004 	bnez	t0,9d003ecc <.LBB15+0xbc>
9d003ebc:	24e4ffff 	addiu	a0,a3,-1
9d003ec0:	004a502b 	sltu	t2,v0,t2
9d003ec4:	24e7fffe 	addiu	a3,a3,-2
9d003ec8:	00ea200b 	movn	a0,a3,t2
9d003ecc:	00061400 	sll	v0,a2,0x10
9d003ed0:	00821025 	or	v0,a0,v0

9d003ed4 <.LBE15>:
9d003ed4:	03e00008 	jr	ra
9d003ed8:	00001821 	move	v1,zero
9d003edc:	00a7102b 	sltu	v0,a1,a3
9d003ee0:	14400044 	bnez	v0,9d003ff4 <.LBE16+0x8>
9d003ee4:	70e84020 	clz	t0,a3
9d003ee8:	55000045 	bnezl	t0,9d004000 <.LBE16+0x14>
9d003eec:	24020020 	li	v0,32
9d003ef0:	00e5282b 	sltu	a1,a3,a1
9d003ef4:	14a000c8 	bnez	a1,9d004218 <.LBE20+0x120>
9d003ef8:	0086302b 	sltu	a2,a0,a2
9d003efc:	38c20001 	xori	v0,a2,0x1
9d003f00:	03e00008 	jr	ra
9d003f04:	00001821 	move	v1,zero
9d003f08:	14c00006 	bnez	a2,9d003f24 <.LBE15+0x50>
9d003f0c:	71031820 	clz	v1,t0
9d003f10:	24030001 	li	v1,1
9d003f14:	0066001b 	divu	zero,v1,a2
9d003f18:	00c001f4 	teq	a2,zero,0x7
9d003f1c:	00004012 	mflo	t0
9d003f20:	71031820 	clz	v1,t0
9d003f24:	5460007b 	bnezl	v1,9d004114 <.LBE20+0x1c>
9d003f28:	00684004 	sllv	t0,t0,v1
9d003f2c:	00a82023 	subu	a0,a1,t0
9d003f30:	00083c02 	srl	a3,t0,0x10
9d003f34:	310bffff 	andi	t3,t0,0xffff
9d003f38:	24030001 	li	v1,1

9d003f3c <.LBB16>:
9d003f3c:	00023402 	srl	a2,v0,0x10
9d003f40:	0087001b 	divu	zero,a0,a3
9d003f44:	00e001f4 	teq	a3,zero,0x7
9d003f48:	00006810 	mfhi	t5
9d003f4c:	00006012 	mflo	t4
9d003f50:	00004812 	mflo	t1
9d003f54:	718b5002 	mul	t2,t4,t3
9d003f58:	000d6c00 	sll	t5,t5,0x10
9d003f5c:	01a63025 	or	a2,t5,a2
9d003f60:	00ca682b 	sltu	t5,a2,t2
9d003f64:	0087001b 	divu	zero,a0,a3
9d003f68:	00e001f4 	teq	a3,zero,0x7
9d003f6c:	11a00009 	beqz	t5,9d003f94 <.LBB16+0x58>
9d003f70:	00ca2823 	subu	a1,a2,t2
9d003f74:	00c83021 	addu	a2,a2,t0
9d003f78:	00c8202b 	sltu	a0,a2,t0
9d003f7c:	14800004 	bnez	a0,9d003f90 <.LBB16+0x54>
9d003f80:	2589ffff 	addiu	t1,t4,-1
9d003f84:	00ca202b 	sltu	a0,a2,t2
9d003f88:	548000a6 	bnezl	a0,9d004224 <.LBE20+0x12c>
9d003f8c:	2589fffe 	addiu	t1,t4,-2
9d003f90:	00ca2823 	subu	a1,a2,t2
9d003f94:	3042ffff 	andi	v0,v0,0xffff
9d003f98:	00a7001b 	divu	zero,a1,a3
9d003f9c:	00e001f4 	teq	a3,zero,0x7
9d003fa0:	00005010 	mfhi	t2
9d003fa4:	00003012 	mflo	a2
9d003fa8:	00002012 	mflo	a0
9d003fac:	70cb5802 	mul	t3,a2,t3
9d003fb0:	000a5400 	sll	t2,t2,0x10
9d003fb4:	01421025 	or	v0,t2,v0
9d003fb8:	004b502b 	sltu	t2,v0,t3
9d003fbc:	00a7001b 	divu	zero,a1,a3
9d003fc0:	00e001f4 	teq	a3,zero,0x7
9d003fc4:	51400009 	beqzl	t2,9d003fec <.LBE16>
9d003fc8:	00091400 	sll	v0,t1,0x10
9d003fcc:	00481021 	addu	v0,v0,t0
9d003fd0:	0048402b 	sltu	t0,v0,t0
9d003fd4:	15000004 	bnez	t0,9d003fe8 <.LBB16+0xac>
9d003fd8:	24c4ffff 	addiu	a0,a2,-1
9d003fdc:	004b582b 	sltu	t3,v0,t3
9d003fe0:	24c6fffe 	addiu	a2,a2,-2
9d003fe4:	00cb200b 	movn	a0,a2,t3
9d003fe8:	00091400 	sll	v0,t1,0x10

9d003fec <.LBE16>:
9d003fec:	03e00008 	jr	ra
9d003ff0:	00821025 	or	v0,a0,v0
9d003ff4:	00001821 	move	v1,zero
9d003ff8:	03e00008 	jr	ra
9d003ffc:	00001021 	move	v0,zero
9d004000:	00481023 	subu	v0,v0,t0
9d004004:	01073804 	sllv	a3,a3,t0
9d004008:	00461806 	srlv	v1,a2,v0
9d00400c:	00673825 	or	a3,v1,a3
9d004010:	00455006 	srlv	t2,a1,v0
9d004014:	00071c02 	srl	v1,a3,0x10
9d004018:	0143001b 	divu	zero,t2,v1
9d00401c:	006001f4 	teq	v1,zero,0x7
9d004020:	00004810 	mfhi	t1
9d004024:	00006812 	mflo	t5
9d004028:	30ebffff 	andi	t3,a3,0xffff
9d00402c:	01052804 	sllv	a1,a1,t0
9d004030:	00441006 	srlv	v0,a0,v0
9d004034:	00452825 	or	a1,v0,a1
9d004038:	00057402 	srl	t6,a1,0x10
9d00403c:	00001012 	mflo	v0
9d004040:	71ab6002 	mul	t4,t5,t3
9d004044:	00094c00 	sll	t1,t1,0x10
9d004048:	012e4825 	or	t1,t1,t6
9d00404c:	012c702b 	sltu	t6,t1,t4
9d004050:	0143001b 	divu	zero,t2,v1
9d004054:	006001f4 	teq	v1,zero,0x7
9d004058:	11c0000a 	beqz	t6,9d004084 <.LBE16+0x98>
9d00405c:	01063004 	sllv	a2,a2,t0
9d004060:	01274821 	addu	t1,t1,a3
9d004064:	0127502b 	sltu	t2,t1,a3
9d004068:	15400006 	bnez	t2,9d004084 <.LBE16+0x98>
9d00406c:	25a2ffff 	addiu	v0,t5,-1
9d004070:	012c502b 	sltu	t2,t1,t4
9d004074:	51400004 	beqzl	t2,9d004088 <.LBE16+0x9c>
9d004078:	012c4823 	subu	t1,t1,t4
9d00407c:	25a2fffe 	addiu	v0,t5,-2
9d004080:	01274821 	addu	t1,t1,a3
9d004084:	012c4823 	subu	t1,t1,t4
9d004088:	30a5ffff 	andi	a1,a1,0xffff
9d00408c:	0123001b 	divu	zero,t1,v1
9d004090:	006001f4 	teq	v1,zero,0x7
9d004094:	00006810 	mfhi	t5
9d004098:	00006012 	mflo	t4
9d00409c:	00005012 	mflo	t2
9d0040a0:	718b5802 	mul	t3,t4,t3
9d0040a4:	000d6c00 	sll	t5,t5,0x10
9d0040a8:	01a52825 	or	a1,t5,a1
9d0040ac:	00ab682b 	sltu	t5,a1,t3
9d0040b0:	0123001b 	divu	zero,t1,v1
9d0040b4:	006001f4 	teq	v1,zero,0x7
9d0040b8:	51a0000b 	beqzl	t5,9d0040e8 <.LBE16+0xfc>
9d0040bc:	00021400 	sll	v0,v0,0x10
9d0040c0:	00a72821 	addu	a1,a1,a3
9d0040c4:	00a7182b 	sltu	v1,a1,a3
9d0040c8:	14600006 	bnez	v1,9d0040e4 <.LBE16+0xf8>
9d0040cc:	258affff 	addiu	t2,t4,-1
9d0040d0:	00ab182b 	sltu	v1,a1,t3
9d0040d4:	50600004 	beqzl	v1,9d0040e8 <.LBE16+0xfc>
9d0040d8:	00021400 	sll	v0,v0,0x10
9d0040dc:	258afffe 	addiu	t2,t4,-2
9d0040e0:	00a72821 	addu	a1,a1,a3
9d0040e4:	00021400 	sll	v0,v0,0x10
9d0040e8:	01421025 	or	v0,t2,v0
9d0040ec:	00ab2823 	subu	a1,a1,t3

9d0040f0 <.LBB20>:
9d0040f0:	00460019 	multu	v0,a2
9d0040f4:	00003810 	mfhi	a3

9d0040f8 <.LBE20>:
9d0040f8:	00a7182b 	sltu	v1,a1,a3
9d0040fc:	14600044 	bnez	v1,9d004210 <.LBE20+0x118>
9d004100:	00003012 	mflo	a2
9d004104:	10a7003f 	beq	a1,a3,9d004204 <.LBE20+0x10c>
9d004108:	01042004 	sllv	a0,a0,t0
9d00410c:	03e00008 	jr	ra
9d004110:	00001821 	move	v1,zero
9d004114:	24020020 	li	v0,32
9d004118:	00431023 	subu	v0,v0,v1
9d00411c:	00454806 	srlv	t1,a1,v0
9d004120:	00083c02 	srl	a3,t0,0x10
9d004124:	0127001b 	divu	zero,t1,a3
9d004128:	00e001f4 	teq	a3,zero,0x7
9d00412c:	00003010 	mfhi	a2
9d004130:	00006012 	mflo	t4
9d004134:	310bffff 	andi	t3,t0,0xffff
9d004138:	00652804 	sllv	a1,a1,v1
9d00413c:	00441006 	srlv	v0,a0,v0
9d004140:	00452825 	or	a1,v0,a1
9d004144:	00056c02 	srl	t5,a1,0x10
9d004148:	00641004 	sllv	v0,a0,v1
9d00414c:	00001812 	mflo	v1
9d004150:	718b5002 	mul	t2,t4,t3
9d004154:	00063400 	sll	a2,a2,0x10
9d004158:	01a63025 	or	a2,t5,a2
9d00415c:	00ca202b 	sltu	a0,a2,t2
9d004160:	0127001b 	divu	zero,t1,a3
9d004164:	00e001f4 	teq	a3,zero,0x7
9d004168:	5080000b 	beqzl	a0,9d004198 <.LBE20+0xa0>
9d00416c:	00ca3023 	subu	a2,a2,t2
9d004170:	00c83021 	addu	a2,a2,t0
9d004174:	00c8202b 	sltu	a0,a2,t0
9d004178:	14800006 	bnez	a0,9d004194 <.LBE20+0x9c>
9d00417c:	2583ffff 	addiu	v1,t4,-1
9d004180:	00ca202b 	sltu	a0,a2,t2
9d004184:	50800004 	beqzl	a0,9d004198 <.LBE20+0xa0>
9d004188:	00ca3023 	subu	a2,a2,t2
9d00418c:	2583fffe 	addiu	v1,t4,-2
9d004190:	00c83021 	addu	a2,a2,t0
9d004194:	00ca3023 	subu	a2,a2,t2
9d004198:	30acffff 	andi	t4,a1,0xffff
9d00419c:	00c7001b 	divu	zero,a2,a3
9d0041a0:	00e001f4 	teq	a3,zero,0x7
9d0041a4:	00002010 	mfhi	a0
9d0041a8:	00005012 	mflo	t2
9d0041ac:	00004812 	mflo	t1
9d0041b0:	714b2802 	mul	a1,t2,t3
9d0041b4:	00042400 	sll	a0,a0,0x10
9d0041b8:	008c2025 	or	a0,a0,t4
9d0041bc:	0085602b 	sltu	t4,a0,a1
9d0041c0:	00c7001b 	divu	zero,a2,a3
9d0041c4:	00e001f4 	teq	a3,zero,0x7
9d0041c8:	5180000b 	beqzl	t4,9d0041f8 <.LBE20+0x100>
9d0041cc:	00031c00 	sll	v1,v1,0x10
9d0041d0:	00882021 	addu	a0,a0,t0
9d0041d4:	0088302b 	sltu	a2,a0,t0
9d0041d8:	14c00006 	bnez	a2,9d0041f4 <.LBE20+0xfc>
9d0041dc:	2549ffff 	addiu	t1,t2,-1
9d0041e0:	0085302b 	sltu	a2,a0,a1
9d0041e4:	50c00004 	beqzl	a2,9d0041f8 <.LBE20+0x100>
9d0041e8:	00031c00 	sll	v1,v1,0x10
9d0041ec:	2549fffe 	addiu	t1,t2,-2
9d0041f0:	00882021 	addu	a0,a0,t0
9d0041f4:	00031c00 	sll	v1,v1,0x10
9d0041f8:	00852023 	subu	a0,a0,a1
9d0041fc:	0b400fcf 	j	9d003f3c <.LBB16>
9d004200:	01231825 	or	v1,t1,v1
9d004204:	0086302b 	sltu	a2,a0,a2
9d004208:	10c0ffc0 	beqz	a2,9d00410c <.LBE20+0x14>
9d00420c:	00000000 	nop
9d004210:	0b401043 	j	9d00410c <.LBE20+0x14>
9d004214:	2442ffff 	addiu	v0,v0,-1
9d004218:	00001821 	move	v1,zero
9d00421c:	03e00008 	jr	ra
9d004220:	24020001 	li	v0,1
9d004224:	0b400fe4 	j	9d003f90 <.LBB16+0x54>
9d004228:	00c83021 	addu	a2,a2,t0

Disassembly of section .text.dp32subadd:

9d00422c <__subdf3>:
9d00422c:	3c018000 00e13826                       ...<&8..

9d004234 <__adddf3>:
9d004234:	00055840 000b5d42 000552c0 00047d42     @X..B]...R..B}..
9d004244:	014f5025 00044ac0 3c088000 01485025     %PO..J.....<%PH.
9d004254:	00077040 000e7542 00076ac0 00067d42     @p..Bu...j..B}..
9d004264:	01af6825 000662c0 01a86825 256fffff     %h...b..%h....o%
9d004274:	2de107fe 1020008d 00000000              ...-.. .....

9d004280 <Blab1>:
9d004280:	25cfffff 	addiu	t7,t6,-1
9d004284:	2de107fe 	sltiu	at,t7,2046
9d004288:	102000bb 	beqz	at,9d004578 <BspecB>
9d00428c:	00000000 	nop

9d004290 <Blab2>:
9d004290:	3c018000 	lui	at,0x8000
9d004294:	00a12824 	and	a1,a1,at
9d004298:	016e4023 	subu	t0,t3,t6
9d00429c:	1100002c 	beqz	t0,9d004350 <Badd3>
9d0042a0:	00000000 	nop
9d0042a4:	19000015 	blez	t0,9d0042fc <i1>
9d0042a8:	00000000 	nop

9d0042ac <L1>:
9d0042ac:	2d010020 	sltiu	at,t0,32
9d0042b0:	14200007 	bnez	at,9d0042d0 <L2>
9d0042b4:	00000000 	nop
9d0042b8:	2108ffe0 	addi	t0,t0,-32
9d0042bc:	000c302b 	sltu	a2,zero,t4
9d0042c0:	100d0023 	beq	zero,t5,9d004350 <Badd3>
9d0042c4:	01a66025 	or	t4,t5,a2
9d0042c8:	1000fff8 	b	9d0042ac <L1>
9d0042cc:	340d0000 	li	t5,0x0

9d0042d0 <L2>:
9d0042d0:	1100001f 	beqz	t0,9d004350 <Badd3>
9d0042d4:	00000000 	nop
9d0042d8:	00082022 	neg	a0,t0
9d0042dc:	008c3004 	sllv	a2,t4,a0
9d0042e0:	008d2004 	sllv	a0,t5,a0
9d0042e4:	010c6006 	srlv	t4,t4,t0
9d0042e8:	010d6806 	srlv	t5,t5,t0
9d0042ec:	10c00018 	beqz	a2,9d004350 <Badd3>
9d0042f0:	008c6025 	or	t4,a0,t4
9d0042f4:	10000016 	b	9d004350 <Badd3>
9d0042f8:	358c0002 	ori	t4,t4,0x2

9d0042fc <i1>:
9d0042fc:	000e5825 	or	t3,zero,t6
9d004300:	00084023 	negu	t0,t0

9d004304 <L4>:
9d004304:	2d010020 	sltiu	at,t0,32
9d004308:	14200007 	bnez	at,9d004328 <L5>
9d00430c:	00000000 	nop
9d004310:	2108ffe0 	addi	t0,t0,-32
9d004314:	0009302b 	sltu	a2,zero,t1
9d004318:	100a000d 	beq	zero,t2,9d004350 <Badd3>
9d00431c:	01464825 	or	t1,t2,a2
9d004320:	1000fff8 	b	9d004304 <L4>
9d004324:	340a0000 	li	t2,0x0

9d004328 <L5>:
9d004328:	11000009 	beqz	t0,9d004350 <Badd3>
9d00432c:	00000000 	nop
9d004330:	00082022 	neg	a0,t0
9d004334:	00893004 	sllv	a2,t1,a0
9d004338:	008a2004 	sllv	a0,t2,a0
9d00433c:	01094806 	srlv	t1,t1,t0
9d004340:	010a5006 	srlv	t2,t2,t0
9d004344:	10c00002 	beqz	a2,9d004350 <Badd3>
9d004348:	00894825 	or	t1,a0,t1
9d00434c:	35290002 	ori	t1,t1,0x2

9d004350 <Badd3>:
9d004350:	00a77826 	xor	t7,a1,a3
9d004354:	05e0001c 	bltz	t7,9d0043c8 <Bsub1>
9d004358:	00000000 	nop
9d00435c:	012c4821 	addu	t1,t1,t4
9d004360:	012c782b 	sltu	t7,t1,t4
9d004364:	014d5021 	addu	t2,t2,t5
9d004368:	014f5021 	addu	t2,t2,t7
9d00436c:	114d0002 	beq	t2,t5,9d004378 <L7>
9d004370:	00000000 	nop
9d004374:	014d782b 	sltu	t7,t2,t5

9d004378 <L7>:
9d004378:	11e00037 	beqz	t7,9d004458 <Bres>
9d00437c:	00000000 	nop
9d004380:	312f0001 	andi	t7,t1,0x1
9d004384:	11e00002 	beqz	t7,9d004390 <i3>
9d004388:	00000000 	nop
9d00438c:	35290002 	ori	t1,t1,0x2

9d004390 <i3>:
9d004390:	00094842 	srl	t1,t1,0x1
9d004394:	000a7fc0 	sll	t7,t2,0x1f
9d004398:	012f4825 	or	t1,t1,t7
9d00439c:	000a5042 	srl	t2,t2,0x1
9d0043a0:	3c018000 	lui	at,0x8000
9d0043a4:	01415025 	or	t2,t2,at
9d0043a8:	256b0001 	addiu	t3,t3,1
9d0043ac:	240107ff 	li	at,2047
9d0043b0:	15610029 	bne	t3,at,9d004458 <Bres>
9d0043b4:	00000000 	nop
9d0043b8:	3c017ff0 	lui	at,0x7ff0
9d0043bc:	00a12825 	or	a1,a1,at
9d0043c0:	10000037 	b	9d0044a0 <BretA>
9d0043c4:	24040000 	li	a0,0

9d0043c8 <Bsub1>:
9d0043c8:	012c782b 	sltu	t7,t1,t4
9d0043cc:	012c4823 	subu	t1,t1,t4
9d0043d0:	014f102b 	sltu	v0,t2,t7
9d0043d4:	014f5023 	subu	t2,t2,t7
9d0043d8:	014d782b 	sltu	t7,t2,t5
9d0043dc:	01e27825 	or	t7,t7,v0
9d0043e0:	11e00007 	beqz	t7,9d004400 <i5>
9d0043e4:	014d5023 	subu	t2,t2,t5
9d0043e8:	3c018000 	lui	at,0x8000
9d0043ec:	00a12826 	xor	a1,a1,at
9d0043f0:	0009782b 	sltu	t7,zero,t1
9d0043f4:	00094823 	negu	t1,t1
9d0043f8:	000a5023 	negu	t2,t2
9d0043fc:	014f5023 	subu	t2,t2,t7

9d004400 <i5>:
9d004400:	15400008 	bnez	t2,9d004424 <L8>
9d004404:	00000000 	nop
9d004408:	15200003 	bnez	t1,9d004418 <L9>
9d00440c:	00000000 	nop
9d004410:	1000000d 	b	9d004448 <L10>
9d004414:	240b0000 	li	t3,0

9d004418 <L9>:
9d004418:	01205025 	move	t2,t1
9d00441c:	24090000 	li	t1,0
9d004420:	256bffe0 	addiu	t3,t3,-32

9d004424 <L8>:
9d004424:	71484020 	clz	t0,t2
9d004428:	11000007 	beqz	t0,9d004448 <L10>
9d00442c:	00000000 	nop
9d004430:	01685823 	subu	t3,t3,t0
9d004434:	00082022 	neg	a0,t0
9d004438:	00892006 	srlv	a0,t1,a0
9d00443c:	01094804 	sllv	t1,t1,t0
9d004440:	010a5004 	sllv	t2,t2,t0
9d004444:	01445025 	or	t2,t2,a0

9d004448 <L10>:
9d004448:	01497825 	or	t7,t2,t1
9d00444c:	15e00002 	bnez	t7,9d004458 <Bres>
9d004450:	00000000 	nop
9d004454:	24050000 	li	a1,0

9d004458 <Bres>:
9d004458:	19600068 	blez	t3,9d0045fc <Bund>
9d00445c:	00000000 	nop

9d004460 <Blab8>:
9d004460:	25290400 	addiu	t1,t1,1024
9d004464:	2d2f0400 	sltiu	t7,t1,1024
9d004468:	014f5021 	addu	t2,t2,t7
9d00446c:	014f782b 	sltu	t7,t2,t7
9d004470:	016f5821 	addu	t3,t3,t7
9d004474:	00097ac2 	srl	t7,t1,0xb
9d004478:	31ef0001 	andi	t7,t7,0x1
9d00447c:	012f4823 	subu	t1,t1,t7
9d004480:	000922c2 	srl	a0,t1,0xb
9d004484:	000a7d40 	sll	t7,t2,0x15
9d004488:	008f2025 	or	a0,a0,t7
9d00448c:	000a7840 	sll	t7,t2,0x1
9d004490:	000f7b02 	srl	t7,t7,0xc
9d004494:	00af2825 	or	a1,a1,t7
9d004498:	000b7d00 	sll	t7,t3,0x14
9d00449c:	00af2825 	or	a1,a1,t7

9d0044a0 <BretA>:
9d0044a0:	00041025 	or	v0,zero,a0
9d0044a4:	00051825 	or	v1,zero,a1

9d0044a8 <B999>:
9d0044a8:	03e00008 	jr	ra
9d0044ac:	00000000 	nop

9d0044b0 <BspecA>:
9d0044b0:	0120782a 	slt	t7,t1,zero
9d0044b4:	01294821 	addu	t1,t1,t1
9d0044b8:	014a5021 	addu	t2,t2,t2
9d0044bc:	15600023 	bnez	t3,9d00454c <i7>
9d0044c0:	014f5021 	addu	t2,t2,t7
9d0044c4:	01497825 	or	t7,t2,t1
9d0044c8:	11e00014 	beqz	t7,9d00451c <i8>
9d0044cc:	00000000 	nop
9d0044d0:	15400008 	bnez	t2,9d0044f4 <L11>
9d0044d4:	00000000 	nop
9d0044d8:	15200003 	bnez	t1,9d0044e8 <L12>
9d0044dc:	00000000 	nop
9d0044e0:	1000ff67 	b	9d004280 <Blab1>
9d0044e4:	240b0000 	li	t3,0

9d0044e8 <L12>:
9d0044e8:	01205025 	move	t2,t1
9d0044ec:	24090000 	li	t1,0
9d0044f0:	256bffe0 	addiu	t3,t3,-32

9d0044f4 <L11>:
9d0044f4:	71484020 	clz	t0,t2
9d0044f8:	1100ff61 	beqz	t0,9d004280 <Blab1>
9d0044fc:	00000000 	nop
9d004500:	01685823 	subu	t3,t3,t0
9d004504:	00082022 	neg	a0,t0
9d004508:	00892006 	srlv	a0,t1,a0
9d00450c:	01094804 	sllv	t1,t1,t0
9d004510:	010a5004 	sllv	t2,t2,t0
9d004514:	1000ff5a 	b	9d004280 <Blab1>
9d004518:	01445025 	or	t2,t2,a0

9d00451c <i8>:
9d00451c:	240107ff 	li	at,2047
9d004520:	11c10015 	beq	t6,at,9d004578 <BspecB>
9d004524:	00000000 	nop
9d004528:	00e74021 	addu	t0,a3,a3
9d00452c:	01067825 	or	t7,t0,a2
9d004530:	15e00003 	bnez	t7,9d004540 <BretB>
9d004534:	00000000 	nop
9d004538:	04e0ffd9 	bltz	a3,9d0044a0 <BretA>
9d00453c:	00000000 	nop

9d004540 <BretB>:
9d004540:	00061025 	or	v0,zero,a2
9d004544:	1000ffd8 	b	9d0044a8 <B999>
9d004548:	00071825 	or	v1,zero,a3

9d00454c <i7>:
9d00454c:	01497825 	or	t7,t2,t1
9d004550:	15e00027 	bnez	t7,9d0045f0 <Bnan>
9d004554:	00000000 	nop
9d004558:	240107ff 	li	at,2047
9d00455c:	15c1ffd0 	bne	t6,at,9d0044a0 <BretA>
9d004560:	00000000 	nop
9d004564:	00a77826 	xor	t7,a1,a3
9d004568:	05e00021 	bltz	t7,9d0045f0 <Bnan>
9d00456c:	00000000 	nop
9d004570:	1000fff3 	b	9d004540 <BretB>
9d004574:	00000000 	nop

9d004578 <BspecB>:
9d004578:	0180782a 	slt	t7,t4,zero
9d00457c:	018c6021 	addu	t4,t4,t4
9d004580:	01ad6821 	addu	t5,t5,t5
9d004584:	15c00017 	bnez	t6,9d0045e4 <i11>
9d004588:	01af6821 	addu	t5,t5,t7
9d00458c:	01ac7825 	or	t7,t5,t4
9d004590:	11e0ffc3 	beqz	t7,9d0044a0 <BretA>
9d004594:	00000000 	nop
9d004598:	15a00008 	bnez	t5,9d0045bc <L14>
9d00459c:	00000000 	nop
9d0045a0:	15800003 	bnez	t4,9d0045b0 <L15>
9d0045a4:	00000000 	nop
9d0045a8:	1000ff39 	b	9d004290 <Blab2>
9d0045ac:	240e0000 	li	t6,0

9d0045b0 <L15>:
9d0045b0:	01806825 	move	t5,t4
9d0045b4:	240c0000 	li	t4,0
9d0045b8:	25ceffe0 	addiu	t6,t6,-32

9d0045bc <L14>:
9d0045bc:	71a84020 	clz	t0,t5
9d0045c0:	1100ff33 	beqz	t0,9d004290 <Blab2>
9d0045c4:	00000000 	nop
9d0045c8:	01c87023 	subu	t6,t6,t0
9d0045cc:	00082022 	neg	a0,t0
9d0045d0:	008c2006 	srlv	a0,t4,a0
9d0045d4:	010c6004 	sllv	t4,t4,t0
9d0045d8:	010d6804 	sllv	t5,t5,t0
9d0045dc:	1000ff2c 	b	9d004290 <Blab2>
9d0045e0:	01a46825 	or	t5,t5,a0

9d0045e4 <i11>:
9d0045e4:	01ac7825 	or	t7,t5,t4
9d0045e8:	11e0ffd5 	beqz	t7,9d004540 <BretB>
9d0045ec:	00000000 	nop

9d0045f0 <Bnan>:
9d0045f0:	3c05fff8 	lui	a1,0xfff8
9d0045f4:	1000ffaa 	b	9d0044a0 <BretA>
9d0045f8:	24040000 	li	a0,0

9d0045fc <Bund>:
9d0045fc:	24080001 	li	t0,1
9d004600:	010b4023 	subu	t0,t0,t3

9d004604 <L17>:
9d004604:	2d010020 	sltiu	at,t0,32
9d004608:	14200007 	bnez	at,9d004628 <L18>
9d00460c:	00000000 	nop
9d004610:	2108ffe0 	addi	t0,t0,-32
9d004614:	0009302b 	sltu	a2,zero,t1
9d004618:	100a000d 	beq	zero,t2,9d004650 <L19>
9d00461c:	01464825 	or	t1,t2,a2
9d004620:	1000fff8 	b	9d004604 <L17>
9d004624:	340a0000 	li	t2,0x0

9d004628 <L18>:
9d004628:	11000009 	beqz	t0,9d004650 <L19>
9d00462c:	00000000 	nop
9d004630:	00082022 	neg	a0,t0
9d004634:	00893004 	sllv	a2,t1,a0
9d004638:	008a2004 	sllv	a0,t2,a0
9d00463c:	01094806 	srlv	t1,t1,t0
9d004640:	010a5006 	srlv	t2,t2,t0
9d004644:	10c00002 	beqz	a2,9d004650 <L19>
9d004648:	00894825 	or	t1,a0,t1
9d00464c:	35290002 	ori	t1,t1,0x2

9d004650 <L19>:
9d004650:	1000ff83 	b	9d004460 <Blab8>
9d004654:	240b0000 	li	t3,0
9d004658:	00000000 	nop

Disassembly of section .text.dp32mul:

9d00465c <__muldf3>:
9d00465c:	00055040 000a5542 00054ac0 00047d42     @P..BU...J..B}..
9d00466c:	012f4825 000442c0 3c0e8000 012e4825     %H/..B.....<%H..
9d00467c:	00076840 000d6d42 000762c0 00067d42     @h..Bm...b..B}..
9d00468c:	018f6025 00065ac0 018e6025 00a72826     %`...Z..%`..&(..
9d00469c:	00ae2824 254fffff 2de107fe 10200047     $(....O%...-G. .
9d0046ac:	00000000                                ....

9d0046b0 <Clab1>:
9d0046b0:	25afffff 	addiu	t7,t5,-1
9d0046b4:	2de107fe 	sltiu	at,t7,2046
9d0046b8:	1020006f 	beqz	at,9d004878 <CspecB>
9d0046bc:	00000000 	nop

9d0046c0 <Clab2>:
9d0046c0:	25affc02 	addiu	t7,t5,-1022
9d0046c4:	014f5021 	addu	t2,t2,t7
9d0046c8:	012c0019 	multu	t1,t4
9d0046cc:	00003812 	mflo	a3
9d0046d0:	00007010 	mfhi	t6
9d0046d4:	010b0019 	multu	t0,t3
9d0046d8:	00002012 	mflo	a0
9d0046dc:	00003010 	mfhi	a2
9d0046e0:	012b0019 	multu	t1,t3
9d0046e4:	00005812 	mflo	t3
9d0046e8:	00006810 	mfhi	t5
9d0046ec:	00cb3021 	addu	a2,a2,t3
9d0046f0:	00cb782b 	sltu	t7,a2,t3
9d0046f4:	00ed3821 	addu	a3,a3,t5
9d0046f8:	00ef3821 	addu	a3,a3,t7
9d0046fc:	10ed0002 	beq	a3,t5,9d004708 <L20>
9d004700:	00000000 	nop
9d004704:	00ed782b 	sltu	t7,a3,t5

9d004708 <L20>:
9d004708:	01cf7021 	addu	t6,t6,t7
9d00470c:	010c0019 	multu	t0,t4
9d004710:	00004012 	mflo	t0
9d004714:	00004810 	mfhi	t1
9d004718:	00c83021 	addu	a2,a2,t0
9d00471c:	00c8782b 	sltu	t7,a2,t0
9d004720:	00e93821 	addu	a3,a3,t1
9d004724:	00ef3821 	addu	a3,a3,t7
9d004728:	10e90002 	beq	a3,t1,9d004734 <L21>
9d00472c:	00000000 	nop
9d004730:	00e9782b 	sltu	t7,a3,t1

9d004734 <L21>:
9d004734:	01cf7021 	addu	t6,t6,t7
9d004738:	00867825 	or	t7,a0,a2
9d00473c:	11e00002 	beqz	t7,9d004748 <i13>
9d004740:	00000000 	nop
9d004744:	34e70001 	ori	a3,a3,0x1

9d004748 <i13>:
9d004748:	000e4825 	or	t1,zero,t6
9d00474c:	05200006 	bltz	t1,9d004768 <i14>
9d004750:	00074025 	or	t0,zero,a3
9d004754:	0100782a 	slt	t7,t0,zero
9d004758:	01084021 	addu	t0,t0,t0
9d00475c:	01294821 	addu	t1,t1,t1
9d004760:	012f4821 	addu	t1,t1,t7
9d004764:	254affff 	addiu	t2,t2,-1

9d004768 <i14>:
9d004768:	254fffff 	addiu	t7,t2,-1
9d00476c:	2de107fe 	sltiu	at,t7,2046
9d004770:	10200068 	beqz	at,9d004914 <Coveund>
9d004774:	00000000 	nop
9d004778:	25080400 	addiu	t0,t0,1024
9d00477c:	2d0f0400 	sltiu	t7,t0,1024
9d004780:	012f4821 	addu	t1,t1,t7
9d004784:	012f782b 	sltu	t7,t1,t7
9d004788:	014f5021 	addu	t2,t2,t7

9d00478c <Clab8>:
9d00478c:	00087ac2 	srl	t7,t0,0xb
9d004790:	31ef0001 	andi	t7,t7,0x1
9d004794:	010f4023 	subu	t0,t0,t7
9d004798:	000822c2 	srl	a0,t0,0xb
9d00479c:	00097d40 	sll	t7,t1,0x15
9d0047a0:	008f2025 	or	a0,a0,t7
9d0047a4:	00097840 	sll	t7,t1,0x1
9d0047a8:	000f7b02 	srl	t7,t7,0xc
9d0047ac:	00af2825 	or	a1,a1,t7
9d0047b0:	000a7d00 	sll	t7,t2,0x14
9d0047b4:	00af2825 	or	a1,a1,t7

9d0047b8 <Cret>:
9d0047b8:	00041025 	or	v0,zero,a0
9d0047bc:	00051825 	or	v1,zero,a1

9d0047c0 <C999>:
9d0047c0:	03e00008 	jr	ra
9d0047c4:	00000000 	nop

9d0047c8 <CspecA>:
9d0047c8:	0100782a 	slt	t7,t0,zero
9d0047cc:	01084021 	addu	t0,t0,t0
9d0047d0:	01294821 	addu	t1,t1,t1
9d0047d4:	1540001c 	bnez	t2,9d004848 <i15>
9d0047d8:	012f4821 	addu	t1,t1,t7
9d0047dc:	01287825 	or	t7,t1,t0
9d0047e0:	11e00014 	beqz	t7,9d004834 <i16>
9d0047e4:	00000000 	nop
9d0047e8:	15200008 	bnez	t1,9d00480c <L22>
9d0047ec:	00000000 	nop
9d0047f0:	15000003 	bnez	t0,9d004800 <L23>
9d0047f4:	00000000 	nop
9d0047f8:	1000ffad 	b	9d0046b0 <Clab1>
9d0047fc:	240a0000 	li	t2,0

9d004800 <L23>:
9d004800:	01004825 	move	t1,t0
9d004804:	24080000 	li	t0,0
9d004808:	254affe0 	addiu	t2,t2,-32

9d00480c <L22>:
9d00480c:	712e7020 	clz	t6,t1
9d004810:	11c0ffa7 	beqz	t6,9d0046b0 <Clab1>
9d004814:	00000000 	nop
9d004818:	014e5023 	subu	t2,t2,t6
9d00481c:	000e3822 	neg	a3,t6
9d004820:	00e83806 	srlv	a3,t0,a3
9d004824:	01c84004 	sllv	t0,t0,t6
9d004828:	01c94804 	sllv	t1,t1,t6
9d00482c:	1000ffa0 	b	9d0046b0 <Clab1>
9d004830:	01274825 	or	t1,t1,a3

9d004834 <i16>:
9d004834:	240107ff 	li	at,2047
9d004838:	11a10033 	beq	t5,at,9d004908 <Cnan>
9d00483c:	00000000 	nop
9d004840:	1000ffdd 	b	9d0047b8 <Cret>
9d004844:	00000000 	nop

9d004848 <i15>:
9d004848:	01287825 	or	t7,t1,t0
9d00484c:	15e0002e 	bnez	t7,9d004908 <Cnan>
9d004850:	00000000 	nop
9d004854:	15a00005 	bnez	t5,9d00486c <i17>
9d004858:	00000000 	nop
9d00485c:	000c7840 	sll	t7,t4,0x1
9d004860:	01eb7825 	or	t7,t7,t3
9d004864:	11e00028 	beqz	t7,9d004908 <Cnan>
9d004868:	00000000 	nop

9d00486c <i17>:
9d00486c:	240107ff 	li	at,2047
9d004870:	15a10021 	bne	t5,at,9d0048f8 <Cinf>
9d004874:	00000000 	nop

9d004878 <CspecB>:
9d004878:	0160782a 	slt	t7,t3,zero
9d00487c:	016b5821 	addu	t3,t3,t3
9d004880:	018c6021 	addu	t4,t4,t4
9d004884:	15a00019 	bnez	t5,9d0048ec <i18>
9d004888:	018f6021 	addu	t4,t4,t7
9d00488c:	018b7825 	or	t7,t4,t3
9d004890:	11e00014 	beqz	t7,9d0048e4 <i19>
9d004894:	00000000 	nop
9d004898:	15800008 	bnez	t4,9d0048bc <L25>
9d00489c:	00000000 	nop
9d0048a0:	15600003 	bnez	t3,9d0048b0 <L26>
9d0048a4:	00000000 	nop
9d0048a8:	1000ff85 	b	9d0046c0 <Clab2>
9d0048ac:	240d0000 	li	t5,0

9d0048b0 <L26>:
9d0048b0:	01606025 	move	t4,t3
9d0048b4:	240b0000 	li	t3,0
9d0048b8:	25adffe0 	addiu	t5,t5,-32

9d0048bc <L25>:
9d0048bc:	71863020 	clz	a2,t4
9d0048c0:	10c0ff7f 	beqz	a2,9d0046c0 <Clab2>
9d0048c4:	00000000 	nop
9d0048c8:	01a66823 	subu	t5,t5,a2
9d0048cc:	00067022 	neg	t6,a2
9d0048d0:	01cb7006 	srlv	t6,t3,t6
9d0048d4:	00cb5804 	sllv	t3,t3,a2
9d0048d8:	00cc6004 	sllv	t4,t4,a2
9d0048dc:	1000ff78 	b	9d0046c0 <Clab2>
9d0048e0:	018e6025 	or	t4,t4,t6

9d0048e4 <i19>:
9d0048e4:	1000ffb4 	b	9d0047b8 <Cret>
9d0048e8:	24040000 	li	a0,0

9d0048ec <i18>:
9d0048ec:	018b7825 	or	t7,t4,t3
9d0048f0:	15e00005 	bnez	t7,9d004908 <Cnan>
9d0048f4:	00000000 	nop

9d0048f8 <Cinf>:
9d0048f8:	3c017ff0 	lui	at,0x7ff0
9d0048fc:	00a12825 	or	a1,a1,at
9d004900:	1000ffad 	b	9d0047b8 <Cret>
9d004904:	24040000 	li	a0,0

9d004908 <Cnan>:
9d004908:	3c05fff8 	lui	a1,0xfff8
9d00490c:	1000ffaa 	b	9d0047b8 <Cret>
9d004910:	24040000 	li	a0,0

9d004914 <Coveund>:
9d004914:	1d40fff8 	bgtz	t2,9d0048f8 <Cinf>
9d004918:	00000000 	nop
9d00491c:	240e0001 	li	t6,1
9d004920:	01ca7023 	subu	t6,t6,t2

9d004924 <L28>:
9d004924:	2dc10020 	sltiu	at,t6,32
9d004928:	14200007 	bnez	at,9d004948 <L29>
9d00492c:	00000000 	nop
9d004930:	21ceffe0 	addi	t6,t6,-32
9d004934:	0008302b 	sltu	a2,zero,t0
9d004938:	1009000d 	beq	zero,t1,9d004970 <L30>
9d00493c:	01264025 	or	t0,t1,a2
9d004940:	1000fff8 	b	9d004924 <L28>
9d004944:	34090000 	li	t1,0x0

9d004948 <L29>:
9d004948:	11c00009 	beqz	t6,9d004970 <L30>
9d00494c:	00000000 	nop
9d004950:	000e3822 	neg	a3,t6
9d004954:	00e83004 	sllv	a2,t0,a3
9d004958:	00e93804 	sllv	a3,t1,a3
9d00495c:	01c84006 	srlv	t0,t0,t6
9d004960:	01c94806 	srlv	t1,t1,t6
9d004964:	10c00002 	beqz	a2,9d004970 <L30>
9d004968:	00e84025 	or	t0,a3,t0
9d00496c:	35080002 	ori	t0,t0,0x2

9d004970 <L30>:
9d004970:	25080400 	addiu	t0,t0,1024
9d004974:	2d0f0400 	sltiu	t7,t0,1024
9d004978:	012f4821 	addu	t1,t1,t7
9d00497c:	1000ff83 	b	9d00478c <Clab8>
9d004980:	000957c2 	srl	t2,t1,0x1f
9d004984:	00000000 	nop

Disassembly of section .text:

9d004988 <NU32_Startup>:

// Perform startup routines:
//  Make NU32_LED1 and NU32_LED2 pins outputs (NU32_USER is by default an input)
//  Initialize the serial port - UART3 (no interrupt) 
//  Enable interrupts
void NU32_Startup() {
9d004988:	27bdfff8 	addiu	sp,sp,-8
9d00498c:	afbf0004 	sw	ra,4(sp)
9d004990:	afbe0000 	sw	s8,0(sp)
9d004994:	03a0f021 	move	s8,sp
  // disable interrupts
  __builtin_disable_interrupts();
9d004998:	41626000 	di	v0
9d00499c:	000000c0 	ehb
9d0049a0:	00000000 	nop
  // see Chapter 2 "CPU for Devices with M4K Core" of the PIC32 reference manual
  // most of the other bits have prescribed values
  // microchip does not provide a _CP0_SET_CONFIG macro, so we directly use
  // the compiler built-in command _mtc0
  // to disable cache, use 0xa4210582 
  __builtin_mtc0(_CP0_CONFIG, _CP0_CONFIG_SELECT, 0xa4210583); 
9d0049a4:	3c02a421 	lui	v0,0xa421
9d0049a8:	34420583 	ori	v0,v0,0x583
9d0049ac:	40828000 	mtc0	v0,c0_config
9d0049b0:	000000c0 	ehb
  
  // set the prefectch cache wait state to 2, as per the
  // electrical characteristics data sheet
  CHECONbits.PFMWS = 0x2;   
9d0049b4:	3c03bf88 	lui	v1,0xbf88
9d0049b8:	8c624000 	lw	v0,16384(v1)
9d0049bc:	24040002 	li	a0,2
9d0049c0:	7c821004 	ins	v0,a0,0x0,0x3
9d0049c4:	ac624000 	sw	v0,16384(v1)

  //enable prefetch for cacheable and noncacheable memory
  CHECONbits.PREFEN = 0x3; 
9d0049c8:	3c03bf88 	lui	v1,0xbf88
9d0049cc:	8c624000 	lw	v0,16384(v1)
9d0049d0:	24040003 	li	a0,3
9d0049d4:	7c822904 	ins	v0,a0,0x4,0x2
9d0049d8:	ac624000 	sw	v0,16384(v1)

  // 0 data RAM access wait states
  BMXCONbits.BMXWSDRM = 0x0;
9d0049dc:	3c03bf88 	lui	v1,0xbf88
9d0049e0:	8c622000 	lw	v0,8192(v1)
9d0049e4:	7c023184 	ins	v0,zero,0x6,0x1
9d0049e8:	ac622000 	sw	v0,8192(v1)
  
  // enable multi vector interrupts
  INTCONbits.MVEC = 0x1;
9d0049ec:	3c03bf88 	lui	v1,0xbf88
9d0049f0:	8c621000 	lw	v0,4096(v1)
9d0049f4:	24040001 	li	a0,1
9d0049f8:	7c826304 	ins	v0,a0,0xc,0x1
9d0049fc:	ac621000 	sw	v0,4096(v1)

  // disable JTAG to get B10, B11, B12 and B13 back
  DDPCONbits.JTAGEN = 0;
9d004a00:	3c03bf81 	lui	v1,0xbf81
9d004a04:	9062f200 	lbu	v0,-3584(v1)
9d004a08:	7c0218c4 	ins	v0,zero,0x3,0x1
9d004a0c:	a062f200 	sb	v0,-3584(v1)

  TRISFCLR = 0x0003;  // Make F0 and F1 outputs (LED1 and LED2)
9d004a10:	3c02bf88 	lui	v0,0xbf88
9d004a14:	24030003 	li	v1,3
9d004a18:	ac436144 	sw	v1,24900(v0)
  NU32_LED1 = 1;      // LED1 is off
9d004a1c:	3c03bf88 	lui	v1,0xbf88
9d004a20:	90626160 	lbu	v0,24928(v1)
9d004a24:	24040001 	li	a0,1
9d004a28:	7c820004 	ins	v0,a0,0x0,0x1
9d004a2c:	a0626160 	sb	v0,24928(v1)
  NU32_LED2 = 0;      // LED2 is on
9d004a30:	3c03bf88 	lui	v1,0xbf88
9d004a34:	90626160 	lbu	v0,24928(v1)
9d004a38:	7c020844 	ins	v0,zero,0x1,0x1
9d004a3c:	a0626160 	sb	v0,24928(v1)

  // turn on UART3 without an interrupt
  U3MODEbits.BRGH = 0; // set baud to NU32_DESIRED_BAUD
9d004a40:	3c03bf80 	lui	v1,0xbf80
9d004a44:	94626400 	lhu	v0,25600(v1)
9d004a48:	7c0218c4 	ins	v0,zero,0x3,0x1
9d004a4c:	a4626400 	sh	v0,25600(v1)
  U3BRG = ((NU32_SYS_FREQ / NU32_DESIRED_BAUD) / 16) - 1;
9d004a50:	3c02bf80 	lui	v0,0xbf80
9d004a54:	24030014 	li	v1,20
9d004a58:	ac436440 	sw	v1,25664(v0)

  // 8 bit, no parity bit, and 1 stop bit (8N1 setup)
  U3MODEbits.PDSEL = 0;
9d004a5c:	3c03bf80 	lui	v1,0xbf80
9d004a60:	94626400 	lhu	v0,25600(v1)
9d004a64:	7c021044 	ins	v0,zero,0x1,0x2
9d004a68:	a4626400 	sh	v0,25600(v1)
  U3MODEbits.STSEL = 0;
9d004a6c:	3c03bf80 	lui	v1,0xbf80
9d004a70:	94626400 	lhu	v0,25600(v1)
9d004a74:	7c020004 	ins	v0,zero,0x0,0x1
9d004a78:	a4626400 	sh	v0,25600(v1)

  // configure TX & RX pins as output & input pins
  U3STAbits.UTXEN = 1;
9d004a7c:	3c03bf80 	lui	v1,0xbf80
9d004a80:	8c626410 	lw	v0,25616(v1)
9d004a84:	24040001 	li	a0,1
9d004a88:	7c825284 	ins	v0,a0,0xa,0x1
9d004a8c:	ac626410 	sw	v0,25616(v1)
  U3STAbits.URXEN = 1;
9d004a90:	3c03bf80 	lui	v1,0xbf80
9d004a94:	8c626410 	lw	v0,25616(v1)
9d004a98:	24040001 	li	a0,1
9d004a9c:	7c826304 	ins	v0,a0,0xc,0x1
9d004aa0:	ac626410 	sw	v0,25616(v1)
  // configure hardware flow control using RTS and CTS
  U3MODEbits.UEN = 2;
9d004aa4:	3c03bf80 	lui	v1,0xbf80
9d004aa8:	94626400 	lhu	v0,25600(v1)
9d004aac:	24040002 	li	a0,2
9d004ab0:	7c824a04 	ins	v0,a0,0x8,0x2
9d004ab4:	a4626400 	sh	v0,25600(v1)

  // enable the uart
  U3MODEbits.ON = 1;
9d004ab8:	3c03bf80 	lui	v1,0xbf80
9d004abc:	94626400 	lhu	v0,25600(v1)
9d004ac0:	24040001 	li	a0,1
9d004ac4:	7c827bc4 	ins	v0,a0,0xf,0x1
9d004ac8:	a4626400 	sh	v0,25600(v1)

  __builtin_enable_interrupts();
9d004acc:	41626020 	ei	v0
}
9d004ad0:	03c0e821 	move	sp,s8
9d004ad4:	8fbf0004 	lw	ra,4(sp)
9d004ad8:	8fbe0000 	lw	s8,0(sp)
9d004adc:	27bd0008 	addiu	sp,sp,8
9d004ae0:	03e00008 	jr	ra
9d004ae4:	00000000 	nop

9d004ae8 <NU32_ReadUART3>:

// Read from UART3
// block other functions until you get a '\r' or '\n'
// send the pointer to your char array and the number of elements in the array
void NU32_ReadUART3(char * message, int maxLength) {
9d004ae8:	27bdffe8 	addiu	sp,sp,-24
9d004aec:	afbe0014 	sw	s8,20(sp)
9d004af0:	03a0f021 	move	s8,sp
9d004af4:	afc40018 	sw	a0,24(s8)
9d004af8:	afc5001c 	sw	a1,28(s8)
  char data = 0;
9d004afc:	a3c00008 	sb	zero,8(s8)
  int complete = 0, num_bytes = 0;
9d004b00:	afc00000 	sw	zero,0(s8)
9d004b04:	afc00004 	sw	zero,4(s8)
  // loop until you get a '\r' or '\n'
  while (!complete) {
9d004b08:	0b4012e6 	j	9d004b98 <NU32_ReadUART3+0xb0>
9d004b0c:	00000000 	nop
    if (U3STAbits.URXDA) { // if data is available
9d004b10:	3c02bf80 	lui	v0,0xbf80
9d004b14:	8c426410 	lw	v0,25616(v0)
9d004b18:	30420001 	andi	v0,v0,0x1
9d004b1c:	1040001e 	beqz	v0,9d004b98 <NU32_ReadUART3+0xb0>
9d004b20:	00000000 	nop
      data = U3RXREG;      // read the data
9d004b24:	3c02bf80 	lui	v0,0xbf80
9d004b28:	8c426430 	lw	v0,25648(v0)
9d004b2c:	a3c20008 	sb	v0,8(s8)
      if ((data == '\n') || (data == '\r')) {
9d004b30:	83c30008 	lb	v1,8(s8)
9d004b34:	2402000a 	li	v0,10
9d004b38:	10620005 	beq	v1,v0,9d004b50 <NU32_ReadUART3+0x68>
9d004b3c:	00000000 	nop
9d004b40:	83c30008 	lb	v1,8(s8)
9d004b44:	2402000d 	li	v0,13
9d004b48:	14620005 	bne	v1,v0,9d004b60 <NU32_ReadUART3+0x78>
9d004b4c:	00000000 	nop
        complete = 1;
9d004b50:	24020001 	li	v0,1
9d004b54:	afc20000 	sw	v0,0(s8)
9d004b58:	0b4012e6 	j	9d004b98 <NU32_ReadUART3+0xb0>
9d004b5c:	00000000 	nop
      } else {
        message[num_bytes] = data;
9d004b60:	8fc20004 	lw	v0,4(s8)
9d004b64:	8fc30018 	lw	v1,24(s8)
9d004b68:	00621021 	addu	v0,v1,v0
9d004b6c:	93c30008 	lbu	v1,8(s8)
9d004b70:	a0430000 	sb	v1,0(v0)
        ++num_bytes;
9d004b74:	8fc20004 	lw	v0,4(s8)
9d004b78:	24420001 	addiu	v0,v0,1
9d004b7c:	afc20004 	sw	v0,4(s8)
        // roll over if the array is too small
        if (num_bytes >= maxLength) {
9d004b80:	8fc30004 	lw	v1,4(s8)
9d004b84:	8fc2001c 	lw	v0,28(s8)
9d004b88:	0062102a 	slt	v0,v1,v0
9d004b8c:	14400002 	bnez	v0,9d004b98 <NU32_ReadUART3+0xb0>
9d004b90:	00000000 	nop
          num_bytes = 0;
9d004b94:	afc00004 	sw	zero,4(s8)
// send the pointer to your char array and the number of elements in the array
void NU32_ReadUART3(char * message, int maxLength) {
  char data = 0;
  int complete = 0, num_bytes = 0;
  // loop until you get a '\r' or '\n'
  while (!complete) {
9d004b98:	8fc20000 	lw	v0,0(s8)
9d004b9c:	1040ffdc 	beqz	v0,9d004b10 <NU32_ReadUART3+0x28>
9d004ba0:	00000000 	nop
        }
      }
    }
  }
  // end the string
  message[num_bytes] = '\0';
9d004ba4:	8fc20004 	lw	v0,4(s8)
9d004ba8:	8fc30018 	lw	v1,24(s8)
9d004bac:	00621021 	addu	v0,v1,v0
9d004bb0:	a0400000 	sb	zero,0(v0)
}
9d004bb4:	03c0e821 	move	sp,s8
9d004bb8:	8fbe0014 	lw	s8,20(sp)
9d004bbc:	27bd0018 	addiu	sp,sp,24
9d004bc0:	03e00008 	jr	ra
9d004bc4:	00000000 	nop

9d004bc8 <NU32_WriteUART3>:

// Write a character array using UART3
void NU32_WriteUART3(const char * string) {
9d004bc8:	27bdfff8 	addiu	sp,sp,-8
9d004bcc:	afbe0004 	sw	s8,4(sp)
9d004bd0:	03a0f021 	move	s8,sp
9d004bd4:	afc40008 	sw	a0,8(s8)
  while (*string != '\0') {
9d004bd8:	0b401306 	j	9d004c18 <NU32_WriteUART3+0x50>
9d004bdc:	00000000 	nop
    while (U3STAbits.UTXBF) {
9d004be0:	00000000 	nop
9d004be4:	3c02bf80 	lui	v0,0xbf80
9d004be8:	8c426410 	lw	v0,25616(v0)
9d004bec:	30420200 	andi	v0,v0,0x200
9d004bf0:	1440fffc 	bnez	v0,9d004be4 <NU32_WriteUART3+0x1c>
9d004bf4:	00000000 	nop
      ; // wait until tx buffer isn't full
    }
    U3TXREG = *string;
9d004bf8:	8fc20008 	lw	v0,8(s8)
9d004bfc:	80420000 	lb	v0,0(v0)
9d004c00:	00401821 	move	v1,v0
9d004c04:	3c02bf80 	lui	v0,0xbf80
9d004c08:	ac436420 	sw	v1,25632(v0)
    ++string;
9d004c0c:	8fc20008 	lw	v0,8(s8)
9d004c10:	24420001 	addiu	v0,v0,1
9d004c14:	afc20008 	sw	v0,8(s8)
  message[num_bytes] = '\0';
}

// Write a character array using UART3
void NU32_WriteUART3(const char * string) {
  while (*string != '\0') {
9d004c18:	8fc20008 	lw	v0,8(s8)
9d004c1c:	80420000 	lb	v0,0(v0)
9d004c20:	1440ffef 	bnez	v0,9d004be0 <NU32_WriteUART3+0x18>
9d004c24:	00000000 	nop
      ; // wait until tx buffer isn't full
    }
    U3TXREG = *string;
    ++string;
  }
}
9d004c28:	03c0e821 	move	sp,s8
9d004c2c:	8fbe0004 	lw	s8,4(sp)
9d004c30:	27bd0008 	addiu	sp,sp,8
9d004c34:	03e00008 	jr	ra
9d004c38:	00000000 	nop

Disassembly of section .text.fpsubadd:

9d004c3c <__subsf3>:
9d004c3c:	3c018000 00a12826                       ...<&(..

9d004c44 <__addsf3>:
9d004c44:	00044dc2 312900ff 00055dc2 316b00ff     .M....)1.]....k1
9d004c54:	3c078000 00044200 01074025 00055200     ...<.B..%@...R..
9d004c64:	01475025 252dffff 2da100fe 10200061     %PG...-%...-a. .
9d004c74:	00000000                                ....

9d004c78 <Blab1>:
9d004c78:	256dffff 	addiu	t5,t3,-1
9d004c7c:	2da100fe 	sltiu	at,t5,254
9d004c80:	10200077 	beqz	at,9d004e60 <BspecB>
9d004c84:	00000000 	nop

9d004c88 <Blab2>:
9d004c88:	012b6023 	subu	t4,t1,t3
9d004c8c:	0580000d 	bltz	t4,9d004cc4 <i1>
9d004c90:	00000000 	nop
9d004c94:	29810020 	slti	at,t4,32
9d004c98:	14200003 	bnez	at,9d004ca8 <i2>
9d004c9c:	00000000 	nop
9d004ca0:	10000015 	b	9d004cf8 <e1>
9d004ca4:	240a0002 	li	t2,2

9d004ca8 <i2>:
9d004ca8:	000a3025 	or	a2,zero,t2
9d004cac:	018a5006 	srlv	t2,t2,t4
9d004cb0:	018a6804 	sllv	t5,t2,t4
9d004cb4:	11a60010 	beq	t5,a2,9d004cf8 <e1>
9d004cb8:	00000000 	nop
9d004cbc:	1000000e 	b	9d004cf8 <e1>
9d004cc0:	354a0002 	ori	t2,t2,0x2

9d004cc4 <i1>:
9d004cc4:	000b4825 	or	t1,zero,t3
9d004cc8:	000c6023 	negu	t4,t4
9d004ccc:	29810020 	slti	at,t4,32
9d004cd0:	14200003 	bnez	at,9d004ce0 <i4>
9d004cd4:	00000000 	nop
9d004cd8:	10000007 	b	9d004cf8 <e1>
9d004cdc:	24080002 	li	t0,2

9d004ce0 <i4>:
9d004ce0:	00083025 	or	a2,zero,t0
9d004ce4:	01884006 	srlv	t0,t0,t4
9d004ce8:	01886804 	sllv	t5,t0,t4
9d004cec:	11a60002 	beq	t5,a2,9d004cf8 <e1>
9d004cf0:	00000000 	nop
9d004cf4:	35080002 	ori	t0,t0,0x2

9d004cf8 <e1>:
9d004cf8:	00876024 	and	t4,a0,a3
9d004cfc:	01856826 	xor	t5,t4,a1
9d004d00:	05a00010 	bltz	t5,9d004d44 <Bsub1>
9d004d04:	00000000 	nop
9d004d08:	010a4021 	addu	t0,t0,t2
9d004d0c:	010a682b 	sltu	t5,t0,t2
9d004d10:	11a00017 	beqz	t5,9d004d70 <Bres>
9d004d14:	00000000 	nop
9d004d18:	310d0001 	andi	t5,t0,0x1
9d004d1c:	11a00002 	beqz	t5,9d004d28 <i7>
9d004d20:	00000000 	nop
9d004d24:	35080002 	ori	t0,t0,0x2

9d004d28 <i7>:
9d004d28:	00084042 	srl	t0,t0,0x1
9d004d2c:	25290001 	addiu	t1,t1,1
9d004d30:	240100ff 	li	at,255
9d004d34:	1521000e 	bne	t1,at,9d004d70 <Bres>
9d004d38:	00000000 	nop
9d004d3c:	1000000c 	b	9d004d70 <Bres>
9d004d40:	24080000 	li	t0,0

9d004d44 <Bsub1>:
9d004d44:	010a682b 	sltu	t5,t0,t2
9d004d48:	11a00004 	beqz	t5,9d004d5c <i9>
9d004d4c:	010a4023 	subu	t0,t0,t2
9d004d50:	00084023 	negu	t0,t0
9d004d54:	10000003 	b	9d004d64 <e9>
9d004d58:	01876026 	xor	t4,t4,a3

9d004d5c <i9>:
9d004d5c:	11000050 	beqz	t0,9d004ea0 <Bzer>
9d004d60:	00000000 	nop

9d004d64 <e9>:
9d004d64:	71063020 	clz	a2,t0
9d004d68:	01264823 	subu	t1,t1,a2
9d004d6c:	00c84004 	sllv	t0,t0,a2

9d004d70 <Bres>:
9d004d70:	1920000e 	blez	t1,9d004dac <Bund>
9d004d74:	00000000 	nop

9d004d78 <Blab12>:
9d004d78:	25080080 	addiu	t0,t0,128
9d004d7c:	2d0d0080 	sltiu	t5,t0,128
9d004d80:	012d4821 	addu	t1,t1,t5
9d004d84:	00086a02 	srl	t5,t0,0x8
9d004d88:	31ad0001 	andi	t5,t5,0x1
9d004d8c:	010d4023 	subu	t0,t0,t5
9d004d90:	00084040 	sll	t0,t0,0x1
9d004d94:	00084242 	srl	t0,t0,0x9
9d004d98:	00096dc0 	sll	t5,t1,0x17
9d004d9c:	010d4025 	or	t0,t0,t5
9d004da0:	010c1025 	or	v0,t0,t4

9d004da4 <B999>:
9d004da4:	03e00008 	jr	ra
9d004da8:	00000000 	nop

9d004dac <Bund>:
9d004dac:	24060001 	li	a2,1
9d004db0:	00c93023 	subu	a2,a2,t1
9d004db4:	2cc10020 	sltiu	at,a2,32
9d004db8:	10200039 	beqz	at,9d004ea0 <Bzer>
9d004dbc:	00000000 	nop
9d004dc0:	3c018000 	lui	at,0x8000
9d004dc4:	01014025 	or	t0,t0,at
9d004dc8:	240d0020 	li	t5,32
9d004dcc:	01a66823 	subu	t5,t5,a2
9d004dd0:	01a84804 	sllv	t1,t0,t5
9d004dd4:	11200002 	beqz	t1,9d004de0 <i10>
9d004dd8:	00c84006 	srlv	t0,t0,a2
9d004ddc:	35080001 	ori	t0,t0,0x1

9d004de0 <i10>:
9d004de0:	24090000 	li	t1,0
9d004de4:	250d0080 	addiu	t5,t0,128
9d004de8:	05a1ffe3 	bgez	t5,9d004d78 <Blab12>
9d004dec:	00000000 	nop
9d004df0:	1000ffe1 	b	9d004d78 <Blab12>
9d004df4:	24090001 	li	t1,1

9d004df8 <BspecA>:
9d004df8:	1520000e 	bnez	t1,9d004e34 <i12>
9d004dfc:	00000000 	nop
9d004e00:	01084021 	addu	t0,t0,t0
9d004e04:	11000005 	beqz	t0,9d004e1c <i13>
9d004e08:	00000000 	nop
9d004e0c:	710c6020 	clz	t4,t0
9d004e10:	012c4823 	subu	t1,t1,t4
9d004e14:	1000ff98 	b	9d004c78 <Blab1>
9d004e18:	01884004 	sllv	t0,t0,t4

9d004e1c <i13>:
9d004e1c:	240100ff 	li	at,255
9d004e20:	1161000f 	beq	t3,at,9d004e60 <BspecB>
9d004e24:	00000000 	nop
9d004e28:	3c018000 	lui	at,0x8000
9d004e2c:	14a10018 	bne	a1,at,9d004e90 <BretB>
9d004e30:	00000000 	nop

9d004e34 <i12>:
9d004e34:	01086821 	addu	t5,t0,t0
9d004e38:	15a0001b 	bnez	t5,9d004ea8 <Bnan>
9d004e3c:	00000000 	nop
9d004e40:	240100ff 	li	at,255
9d004e44:	15610014 	bne	t3,at,9d004e98 <BretA>
9d004e48:	00000000 	nop
9d004e4c:	00856826 	xor	t5,a0,a1
9d004e50:	05a00015 	bltz	t5,9d004ea8 <Bnan>
9d004e54:	00000000 	nop
9d004e58:	1000000d 	b	9d004e90 <BretB>
9d004e5c:	00000000 	nop

9d004e60 <BspecB>:
9d004e60:	15600008 	bnez	t3,9d004e84 <i15>
9d004e64:	00000000 	nop
9d004e68:	014a5021 	addu	t2,t2,t2
9d004e6c:	1140000a 	beqz	t2,9d004e98 <BretA>
9d004e70:	00000000 	nop
9d004e74:	714c6020 	clz	t4,t2
9d004e78:	016c5823 	subu	t3,t3,t4
9d004e7c:	1000ff82 	b	9d004c88 <Blab2>
9d004e80:	018a5004 	sllv	t2,t2,t4

9d004e84 <i15>:
9d004e84:	014a6821 	addu	t5,t2,t2
9d004e88:	15a00007 	bnez	t5,9d004ea8 <Bnan>
9d004e8c:	00000000 	nop

9d004e90 <BretB>:
9d004e90:	1000ffc4 	b	9d004da4 <B999>
9d004e94:	00051025 	or	v0,zero,a1

9d004e98 <BretA>:
9d004e98:	1000ffc2 	b	9d004da4 <B999>
9d004e9c:	00041025 	or	v0,zero,a0

9d004ea0 <Bzer>:
9d004ea0:	1000ffc0 	b	9d004da4 <B999>
9d004ea4:	24020000 	li	v0,0

9d004ea8 <Bnan>:
9d004ea8:	1000ffbe 	b	9d004da4 <B999>
9d004eac:	3c02ffc0 	lui	v0,0xffc0
9d004eb0:	00000000 	nop

Disassembly of section .text.fp32div:

9d004eb4 <__divsf3>:
9d004eb4:	3c0b8000 000445c2 310800ff 000555c2     ...<.E.....1.U..
9d004ec4:	314a00ff 00043a00 00eb3825 00054a00     ..J1.:..%8...J..
9d004ed4:	012b4825 00857026 016e5824 250effff     %H+.&p..$Xn....%
9d004ee4:	2dc100fe 1020003f 00000000              ...-?. .....

9d004ef0 <Dlab1>:
9d004ef0:	254effff 	addiu	t6,t2,-1
9d004ef4:	2dc100fe 	sltiu	at,t6,254
9d004ef8:	10200053 	beqz	at,9d005048 <DspecB>
9d004efc:	00000000 	nop

9d004f00 <Dlab2>:
9d004f00:	00e9082b 	sltu	at,a3,t1
9d004f04:	14200003 	bnez	at,9d004f14 <i27>
9d004f08:	00000000 	nop
9d004f0c:	00073842 	srl	a3,a3,0x1
9d004f10:	25080001 	addiu	t0,t0,1

9d004f14 <i27>:
9d004f14:	00096382 	srl	t4,t1,0xe
9d004f18:	018001f4 	teq	t4,zero,0x7
9d004f1c:	00ec001b 	divu	zero,a3,t4
9d004f20:	00002012 	mflo	a0
9d004f24:	00003010 	mfhi	a2
9d004f28:	312d3fff 	andi	t5,t1,0x3fff
9d004f2c:	01a40019 	multu	t5,a0
9d004f30:	00002812 	mflo	a1
9d004f34:	00063380 	sll	a2,a2,0xe
9d004f38:	00c5702b 	sltu	t6,a2,a1
9d004f3c:	11c00004 	beqz	t6,9d004f50 <i28>
9d004f40:	00c53023 	subu	a2,a2,a1
9d004f44:	2484ffff 	addiu	a0,a0,-1
9d004f48:	00c93021 	addu	a2,a2,t1
9d004f4c:	00c9702b 	sltu	t6,a2,t1

9d004f50 <i28>:
9d004f50:	018001f4 	teq	t4,zero,0x7
9d004f54:	00cc001b 	divu	zero,a2,t4
9d004f58:	00003812 	mflo	a3
9d004f5c:	00003010 	mfhi	a2
9d004f60:	01a70019 	multu	t5,a3
9d004f64:	00002812 	mflo	a1
9d004f68:	00063380 	sll	a2,a2,0xe
9d004f6c:	00c5702b 	sltu	t6,a2,a1
9d004f70:	11c00004 	beqz	t6,9d004f84 <i29>
9d004f74:	00c53023 	subu	a2,a2,a1
9d004f78:	24e7ffff 	addiu	a3,a3,-1
9d004f7c:	00c93021 	addu	a2,a2,t1
9d004f80:	00c9702b 	sltu	t6,a2,t1

9d004f84 <i29>:
9d004f84:	00047380 	sll	t6,a0,0xe
9d004f88:	00ee3821 	addu	a3,a3,t6
9d004f8c:	10c00002 	beqz	a2,9d004f98 <i30>
9d004f90:	00073900 	sll	a3,a3,0x4
9d004f94:	34e70001 	ori	a3,a3,0x1

9d004f98 <i30>:
9d004f98:	240e007e 	li	t6,126
9d004f9c:	01ca7023 	subu	t6,t6,t2
9d004fa0:	010e4021 	addu	t0,t0,t6
9d004fa4:	250effff 	addiu	t6,t0,-1
9d004fa8:	2dc100fe 	sltiu	at,t6,254
9d004fac:	10200034 	beqz	at,9d005080 <Doveund>
9d004fb0:	00000000 	nop

9d004fb4 <Dlab8>:
9d004fb4:	24e70080 	addiu	a3,a3,128
9d004fb8:	2cee0080 	sltiu	t6,a3,128
9d004fbc:	010e4021 	addu	t0,t0,t6
9d004fc0:	00077202 	srl	t6,a3,0x8
9d004fc4:	31ce0001 	andi	t6,t6,0x1
9d004fc8:	00ee3823 	subu	a3,a3,t6
9d004fcc:	00073840 	sll	a3,a3,0x1
9d004fd0:	00073a42 	srl	a3,a3,0x9
9d004fd4:	000875c0 	sll	t6,t0,0x17
9d004fd8:	00ee3825 	or	a3,a3,t6
9d004fdc:	00eb1025 	or	v0,a3,t3

9d004fe0 <D999>:
9d004fe0:	03e00008 	jr	ra
9d004fe4:	00000000 	nop

9d004fe8 <DspecA>:
9d004fe8:	15000008 	bnez	t0,9d00500c <i31>
9d004fec:	00000000 	nop
9d004ff0:	00e73821 	addu	a3,a3,a3
9d004ff4:	10e00005 	beqz	a3,9d00500c <i31>
9d004ff8:	00000000 	nop
9d004ffc:	70ec6020 	clz	t4,a3
9d005000:	010c4023 	subu	t0,t0,t4
9d005004:	1000ffba 	b	9d004ef0 <Dlab1>
9d005008:	01873804 	sllv	a3,a3,t4

9d00500c <i31>:
9d00500c:	15480004 	bne	t2,t0,9d005020 <i33>
9d005010:	00000000 	nop
9d005014:	01297021 	addu	t6,t1,t1
9d005018:	11c0002f 	beqz	t6,9d0050d8 <Dnan>
9d00501c:	00000000 	nop

9d005020 <i33>:
9d005020:	240100ff 	li	at,255
9d005024:	11410008 	beq	t2,at,9d005048 <DspecB>
9d005028:	00000000 	nop
9d00502c:	11000012 	beqz	t0,9d005078 <Dzer>
9d005030:	00000000 	nop
9d005034:	00e77021 	addu	t6,a3,a3
9d005038:	15c00027 	bnez	t6,9d0050d8 <Dnan>
9d00503c:	00000000 	nop
9d005040:	10000022 	b	9d0050cc <Dinf>
9d005044:	00000000 	nop

9d005048 <DspecB>:
9d005048:	15400008 	bnez	t2,9d00506c <i34>
9d00504c:	00000000 	nop
9d005050:	01294821 	addu	t1,t1,t1
9d005054:	1120001d 	beqz	t1,9d0050cc <Dinf>
9d005058:	00000000 	nop
9d00505c:	712c6020 	clz	t4,t1
9d005060:	014c5023 	subu	t2,t2,t4
9d005064:	1000ffa6 	b	9d004f00 <Dlab2>
9d005068:	01894804 	sllv	t1,t1,t4

9d00506c <i34>:
9d00506c:	01297021 	addu	t6,t1,t1
9d005070:	15c00019 	bnez	t6,9d0050d8 <Dnan>
9d005074:	00000000 	nop

9d005078 <Dzer>:
9d005078:	1000ffd9 	b	9d004fe0 <D999>
9d00507c:	000b1025 	or	v0,zero,t3

9d005080 <Doveund>:
9d005080:	1d000012 	bgtz	t0,9d0050cc <Dinf>
9d005084:	00000000 	nop
9d005088:	240c0001 	li	t4,1
9d00508c:	01886023 	subu	t4,t4,t0
9d005090:	2d810020 	sltiu	at,t4,32
9d005094:	1020fff8 	beqz	at,9d005078 <Dzer>
9d005098:	00000000 	nop
9d00509c:	240e0020 	li	t6,32
9d0050a0:	01cc7023 	subu	t6,t6,t4
9d0050a4:	01c74004 	sllv	t0,a3,t6
9d0050a8:	11000002 	beqz	t0,9d0050b4 <i37>
9d0050ac:	01873806 	srlv	a3,a3,t4
9d0050b0:	34e70002 	ori	a3,a3,0x2

9d0050b4 <i37>:
9d0050b4:	24080000 	li	t0,0
9d0050b8:	24ee0080 	addiu	t6,a3,128
9d0050bc:	05c1ffbd 	bgez	t6,9d004fb4 <Dlab8>
9d0050c0:	00000000 	nop
9d0050c4:	1000ffbb 	b	9d004fb4 <Dlab8>
9d0050c8:	24080001 	li	t0,1

9d0050cc <Dinf>:
9d0050cc:	3c017f80 	lui	at,0x7f80
9d0050d0:	1000ffc3 	b	9d004fe0 <D999>
9d0050d4:	01611025 	or	v0,t3,at

9d0050d8 <Dnan>:
9d0050d8:	1000ffc1 	b	9d004fe0 <D999>
9d0050dc:	3c02ffc0 	lui	v0,0xffc0
9d0050e0:	00000000 	nop

Disassembly of section .rodata:

9d0050e8 <.rodata>:
9d0050e8:	72616863 	0x72616863
9d0050ec:	64646120 	0x64646120
9d0050f0:	6f697469 	0x6f697469
9d0050f4:	25203a6e 	addiu	zero,t1,14958
9d0050f8:	0a0d2069 	j	983481a4 <_bmxdudba_address+0x983281a4>
9d0050fc:	00000000 	nop
9d005100:	72616863 	0x72616863
9d005104:	62757320 	0x62757320
9d005108:	63617274 	0x63617274
9d00510c:	6e6f6974 	0x6e6f6974
9d005110:	6925203a 	0x6925203a
9d005114:	000a0d20 	0xa0d20
9d005118:	72616863 	0x72616863
9d00511c:	6c756d20 	0x6c756d20
9d005120:	6c706974 	0x6c706974
9d005124:	74616369 	jalx	91858da4 <_bmxdudba_address+0x91838da4>
9d005128:	3a6e6f69 	xori	t6,s3,0x6f69
9d00512c:	20692520 	addi	t1,v1,9504
9d005130:	00000a0d 	break	0x0,0x28
9d005134:	72616863 	0x72616863
9d005138:	76696420 	jalx	99a59080 <_bmxdudba_address+0x99a39080>
9d00513c:	6f697369 	0x6f697369
9d005140:	25203a6e 	addiu	zero,t1,14958
9d005144:	0a0d2069 	j	983481a4 <_bmxdudba_address+0x983281a4>
9d005148:	00000000 	nop
9d00514c:	20746e69 	addi	s4,v1,28265
9d005150:	69646461 	0x69646461
9d005154:	6e6f6974 	0x6e6f6974
9d005158:	6925203a 	0x6925203a
9d00515c:	000a0d20 	0xa0d20
9d005160:	20746e69 	addi	s4,v1,28265
9d005164:	74627573 	jalx	9189d5cc <_bmxdudba_address+0x9187d5cc>
9d005168:	74636172 	jalx	918d85c8 <_bmxdudba_address+0x918b85c8>
9d00516c:	3a6e6f69 	xori	t6,s3,0x6f69
9d005170:	20692520 	addi	t1,v1,9504
9d005174:	00000a0d 	break	0x0,0x28
9d005178:	20746e69 	addi	s4,v1,28265
9d00517c:	746c756d 	jalx	91b1d5b4 <_bmxdudba_address+0x91afd5b4>
9d005180:	696c7069 	0x696c7069
9d005184:	69746163 	0x69746163
9d005188:	203a6e6f 	addi	k0,at,28271
9d00518c:	0d206925 	jal	9481a494 <_bmxdudba_address+0x947fa494>
9d005190:	0000000a 	movz	zero,zero,zero
9d005194:	20746e69 	addi	s4,v1,28265
9d005198:	69766964 	0x69766964
9d00519c:	6e6f6973 	0x6e6f6973
9d0051a0:	6925203a 	0x6925203a
9d0051a4:	000a0d20 	0xa0d20
9d0051a8:	676e6f6c 	0x676e6f6c
9d0051ac:	64646120 	0x64646120
9d0051b0:	6f697469 	0x6f697469
9d0051b4:	25203a6e 	addiu	zero,t1,14958
9d0051b8:	0d20696c 	jal	9481a5b0 <_bmxdudba_address+0x947fa5b0>
9d0051bc:	0000000a 	movz	zero,zero,zero
9d0051c0:	676e6f6c 	0x676e6f6c
9d0051c4:	62757320 	0x62757320
9d0051c8:	63617274 	0x63617274
9d0051cc:	6e6f6974 	0x6e6f6974
9d0051d0:	6c25203a 	0x6c25203a
9d0051d4:	0a0d2069 	j	983481a4 <_bmxdudba_address+0x983281a4>
9d0051d8:	00000000 	nop
9d0051dc:	676e6f6c 	0x676e6f6c
9d0051e0:	6c756d20 	0x6c756d20
9d0051e4:	6c706974 	0x6c706974
9d0051e8:	74616369 	jalx	91858da4 <_bmxdudba_address+0x91838da4>
9d0051ec:	3a6e6f69 	xori	t6,s3,0x6f69
9d0051f0:	696c2520 	0x696c2520
9d0051f4:	000a0d20 	0xa0d20
9d0051f8:	676e6f6c 	0x676e6f6c
9d0051fc:	76696420 	jalx	99a59080 <_bmxdudba_address+0x99a39080>
9d005200:	6f697369 	0x6f697369
9d005204:	25203a6e 	addiu	zero,t1,14958
9d005208:	0d20696c 	jal	9481a5b0 <_bmxdudba_address+0x947fa5b0>
9d00520c:	0000000a 	movz	zero,zero,zero
9d005210:	616f6c66 	0x616f6c66
9d005214:	64612074 	0x64612074
9d005218:	69746964 	0x69746964
9d00521c:	203a6e6f 	addi	k0,at,28271
9d005220:	0d206625 	jal	94819894 <_bmxdudba_address+0x947f9894>
9d005224:	0000000a 	movz	zero,zero,zero
9d005228:	616f6c66 	0x616f6c66
9d00522c:	75732074 	jalx	95cc81d0 <_bmxdudba_address+0x95ca81d0>
9d005230:	61727462 	0x61727462
9d005234:	6f697463 	0x6f697463
9d005238:	25203a6e 	addiu	zero,t1,14958
9d00523c:	0a0d2066 	j	98348198 <_bmxdudba_address+0x98328198>
9d005240:	00000000 	nop
9d005244:	616f6c66 	0x616f6c66
9d005248:	756d2074 	jalx	95b481d0 <_bmxdudba_address+0x95b281d0>
9d00524c:	7069746c 	0x7069746c
9d005250:	6163696c 	0x6163696c
9d005254:	6e6f6974 	0x6e6f6974
9d005258:	6625203a 	0x6625203a
9d00525c:	000a0d20 	0xa0d20
9d005260:	616f6c66 	0x616f6c66
9d005264:	69642074 	0x69642074
9d005268:	69736976 	0x69736976
9d00526c:	203a6e6f 	addi	k0,at,28271
9d005270:	0d206625 	jal	94819894 <_bmxdudba_address+0x947f9894>
9d005274:	0000000a 	movz	zero,zero,zero
9d005278:	62756f64 	0x62756f64
9d00527c:	6120656c 	0x6120656c
9d005280:	74696464 	jalx	91a59190 <_bmxdudba_address+0x91a39190>
9d005284:	3a6e6f69 	xori	t6,s3,0x6f69
9d005288:	664c2520 	0x664c2520
9d00528c:	000a0d20 	0xa0d20
9d005290:	62756f64 	0x62756f64
9d005294:	7320656c 	0x7320656c
9d005298:	72746275 	0x72746275
9d00529c:	69746361 	0x69746361
9d0052a0:	203a6e6f 	addi	k0,at,28271
9d0052a4:	20664c25 	addi	a2,v1,19493
9d0052a8:	00000a0d 	break	0x0,0x28
9d0052ac:	62756f64 	0x62756f64
9d0052b0:	6d20656c 	0x6d20656c
9d0052b4:	69746c75 	0x69746c75
9d0052b8:	63696c70 	0x63696c70
9d0052bc:	6f697461 	0x6f697461
9d0052c0:	25203a6e 	addiu	zero,t1,14958
9d0052c4:	0d20664c 	jal	94819930 <_bmxdudba_address+0x947f9930>
9d0052c8:	0000000a 	movz	zero,zero,zero
9d0052cc:	62756f64 	0x62756f64
9d0052d0:	6420656c 	0x6420656c
9d0052d4:	73697669 	0x73697669
9d0052d8:	3a6e6f69 	xori	t6,s3,0x6f69
9d0052dc:	664c2520 	0x664c2520
9d0052e0:	000a0d20 	0xa0d20
9d0052e4:	3f8147ae 	0x3f8147ae
9d0052e8:	400147ae 	0x400147ae
9d0052ec:	00000000 	nop
9d0052f0:	c0000000 	ll	zero,0(zero)
9d0052f4:	3ff028f5 	0x3ff028f5
9d0052f8:	c0000000 	ll	zero,0(zero)
9d0052fc:	400028f5 	0x400028f5

Disassembly of section .text.fp32mul:

9d005300 <__mulsf3>:
9d005300:	00043dc2 30e700ff 00054dc2 312900ff     .=.....0.M....)1
9d005310:	3c0a8000 00043200 00ca3025 00054200     ...<.2..%0...B..
9d005320:	010a4025 00856026 014c5024 24ecffff     %@..&`..$PL....$
9d005330:	2d8100fe 10200021 00000000              ...-!. .....

9d00533c <Clab1>:
9d00533c:	252cffff 	addiu	t4,t1,-1
9d005340:	2d8100fe 	sltiu	at,t4,254
9d005344:	10200036 	beqz	at,9d005420 <CspecB>
9d005348:	00000000 	nop

9d00534c <Clab2>:
9d00534c:	00c80019 	multu	a2,t0
9d005350:	00005812 	mflo	t3
9d005354:	11600002 	beqz	t3,9d005360 <i17>
9d005358:	00003010 	mfhi	a2
9d00535c:	34c60001 	ori	a2,a2,0x1

9d005360 <i17>:
9d005360:	04c00003 	bltz	a2,9d005370 <i18>
9d005364:	00000000 	nop
9d005368:	00063040 	sll	a2,a2,0x1
9d00536c:	24e7ffff 	addiu	a3,a3,-1

9d005370 <i18>:
9d005370:	252cff82 	addiu	t4,t1,-126
9d005374:	00ec3821 	addu	a3,a3,t4
9d005378:	24ecffff 	addiu	t4,a3,-1
9d00537c:	2d8100fe 	sltiu	at,t4,254
9d005380:	1020003a 	beqz	at,9d00546c <Coveund>
9d005384:	00000000 	nop

9d005388 <Clab8>:
9d005388:	24c60080 	addiu	a2,a2,128
9d00538c:	2ccc0080 	sltiu	t4,a2,128
9d005390:	00ec3821 	addu	a3,a3,t4
9d005394:	00066202 	srl	t4,a2,0x8
9d005398:	318c0001 	andi	t4,t4,0x1
9d00539c:	00cc3023 	subu	a2,a2,t4
9d0053a0:	00063040 	sll	a2,a2,0x1
9d0053a4:	00063242 	srl	a2,a2,0x9
9d0053a8:	000765c0 	sll	t4,a3,0x17
9d0053ac:	00cc3025 	or	a2,a2,t4
9d0053b0:	00ca1025 	or	v0,a2,t2

9d0053b4 <C999>:
9d0053b4:	03e00008 	jr	ra
9d0053b8:	00000000 	nop

9d0053bc <CspecA>:
9d0053bc:	14e0000d 	bnez	a3,9d0053f4 <i19>
9d0053c0:	00000000 	nop
9d0053c4:	00c63021 	addu	a2,a2,a2
9d0053c8:	10c00005 	beqz	a2,9d0053e0 <i20>
9d0053cc:	00000000 	nop
9d0053d0:	70cb5820 	clz	t3,a2
9d0053d4:	00eb3823 	subu	a3,a3,t3
9d0053d8:	1000ffd8 	b	9d00533c <Clab1>
9d0053dc:	01663004 	sllv	a2,a2,t3

9d0053e0 <i20>:
9d0053e0:	240100ff 	li	at,255
9d0053e4:	1121001f 	beq	t1,at,9d005464 <Cnan>
9d0053e8:	00000000 	nop
9d0053ec:	10000015 	b	9d005444 <Czer>
9d0053f0:	00000000 	nop

9d0053f4 <i19>:
9d0053f4:	00c66021 	addu	t4,a2,a2
9d0053f8:	1580001a 	bnez	t4,9d005464 <Cnan>
9d0053fc:	00000000 	nop
9d005400:	15200004 	bnez	t1,9d005414 <i21>
9d005404:	00000000 	nop
9d005408:	01086021 	addu	t4,t0,t0
9d00540c:	11800015 	beqz	t4,9d005464 <Cnan>
9d005410:	00000000 	nop

9d005414 <i21>:
9d005414:	240100ff 	li	at,255
9d005418:	1521000f 	bne	t1,at,9d005458 <Cinf>
9d00541c:	00000000 	nop

9d005420 <CspecB>:
9d005420:	1520000a 	bnez	t1,9d00544c <i22>
9d005424:	00000000 	nop
9d005428:	01084021 	addu	t0,t0,t0
9d00542c:	11000005 	beqz	t0,9d005444 <Czer>
9d005430:	00000000 	nop
9d005434:	710b5820 	clz	t3,t0
9d005438:	012b4823 	subu	t1,t1,t3
9d00543c:	1000ffc3 	b	9d00534c <Clab2>
9d005440:	01684004 	sllv	t0,t0,t3

9d005444 <Czer>:
9d005444:	1000ffdb 	b	9d0053b4 <C999>
9d005448:	000a1025 	or	v0,zero,t2

9d00544c <i22>:
9d00544c:	01086021 	addu	t4,t0,t0
9d005450:	15800004 	bnez	t4,9d005464 <Cnan>
9d005454:	00000000 	nop

9d005458 <Cinf>:
9d005458:	3c017f80 	lui	at,0x7f80
9d00545c:	1000ffd5 	b	9d0053b4 <C999>
9d005460:	01411025 	or	v0,t2,at

9d005464 <Cnan>:
9d005464:	1000ffd3 	b	9d0053b4 <C999>
9d005468:	3c02ffc0 	lui	v0,0xffc0

9d00546c <Coveund>:
9d00546c:	1ce0fffa 	bgtz	a3,9d005458 <Cinf>
9d005470:	00000000 	nop
9d005474:	240b0001 	li	t3,1
9d005478:	01675823 	subu	t3,t3,a3
9d00547c:	2d610020 	sltiu	at,t3,32
9d005480:	1020fff0 	beqz	at,9d005444 <Czer>
9d005484:	00000000 	nop
9d005488:	240c0020 	li	t4,32
9d00548c:	018b6023 	subu	t4,t4,t3
9d005490:	01863804 	sllv	a3,a2,t4
9d005494:	10e00002 	beqz	a3,9d0054a0 <i25>
9d005498:	01663006 	srlv	a2,a2,t3
9d00549c:	34c60002 	ori	a2,a2,0x2

9d0054a0 <i25>:
9d0054a0:	24070000 	li	a3,0
9d0054a4:	24cc0080 	addiu	t4,a2,128
9d0054a8:	0581ffb7 	bgez	t4,9d005388 <Clab8>
9d0054ac:	00000000 	nop
9d0054b0:	1000ffb5 	b	9d005388 <Clab8>
9d0054b4:	24070001 	li	a3,1
9d0054b8:	00000000 	nop

Disassembly of section .text._outcnvrt:

9d0054bc <_outcnvrt>:
9d0054bc:	27bdffd8 	addiu	sp,sp,-40
9d0054c0:	afbf0024 	sw	ra,36(sp)
9d0054c4:	afb40020 	sw	s4,32(sp)
9d0054c8:	afb3001c 	sw	s3,28(sp)
9d0054cc:	afb20018 	sw	s2,24(sp)
9d0054d0:	afb10014 	sw	s1,20(sp)
9d0054d4:	afb00010 	sw	s0,16(sp)
9d0054d8:	00809821 	move	s3,a0
9d0054dc:	00a0a021 	move	s4,a1
9d0054e0:	97a20038 	lhu	v0,56(sp)
9d0054e4:	30420008 	andi	v0,v0,0x8
9d0054e8:	00c08021 	move	s0,a2
9d0054ec:	10400014 	beqz	v0,9d005540 <_outcnvrt+0x84>
9d0054f0:	00e08821 	move	s1,a3
9d0054f4:	00a02021 	move	a0,a1
9d0054f8:	00c02821 	move	a1,a2
9d0054fc:	0f40183e 	jal	9d0060f8 <__sputn>
9d005500:	02603021 	move	a2,s3
9d005504:	2403ffff 	li	v1,-1
9d005508:	10430003 	beq	v0,v1,9d005518 <_outcnvrt+0x5c>
9d00550c:	0211902a 	slt	s2,s0,s1
9d005510:	1640001c 	bnez	s2,9d005584 <_outcnvrt+0xc8>
9d005514:	02602021 	move	a0,s3
9d005518:	02201021 	move	v0,s1
9d00551c:	0212100a 	movz	v0,s0,s2
9d005520:	8fbf0024 	lw	ra,36(sp)
9d005524:	8fb40020 	lw	s4,32(sp)
9d005528:	8fb3001c 	lw	s3,28(sp)
9d00552c:	8fb20018 	lw	s2,24(sp)
9d005530:	8fb10014 	lw	s1,20(sp)
9d005534:	8fb00010 	lw	s0,16(sp)
9d005538:	03e00008 	jr	ra
9d00553c:	27bd0028 	addiu	sp,sp,40
9d005540:	00c7902a 	slt	s2,a2,a3
9d005544:	1640001d 	bnez	s2,9d0055bc <_outcnvrt+0x100>
9d005548:	00e62823 	subu	a1,a3,a2
9d00554c:	02802021 	move	a0,s4
9d005550:	02002821 	move	a1,s0
9d005554:	0f40183e 	jal	9d0060f8 <__sputn>
9d005558:	02603021 	move	a2,s3
9d00555c:	02201021 	move	v0,s1
9d005560:	0212100a 	movz	v0,s0,s2
9d005564:	8fbf0024 	lw	ra,36(sp)
9d005568:	8fb40020 	lw	s4,32(sp)
9d00556c:	8fb3001c 	lw	s3,28(sp)
9d005570:	8fb20018 	lw	s2,24(sp)
9d005574:	8fb10014 	lw	s1,20(sp)
9d005578:	8fb00010 	lw	s0,16(sp)
9d00557c:	03e00008 	jr	ra
9d005580:	27bd0028 	addiu	sp,sp,40
9d005584:	02302823 	subu	a1,s1,s0
9d005588:	3c069d00 	lui	a2,0x9d00
9d00558c:	0f40174a 	jal	9d005d28 <repl>
9d005590:	24c6619c 	addiu	a2,a2,24988
9d005594:	02201021 	move	v0,s1
9d005598:	0212100a 	movz	v0,s0,s2
9d00559c:	8fbf0024 	lw	ra,36(sp)
9d0055a0:	8fb40020 	lw	s4,32(sp)
9d0055a4:	8fb3001c 	lw	s3,28(sp)
9d0055a8:	8fb20018 	lw	s2,24(sp)
9d0055ac:	8fb10014 	lw	s1,20(sp)
9d0055b0:	8fb00010 	lw	s0,16(sp)
9d0055b4:	03e00008 	jr	ra
9d0055b8:	27bd0028 	addiu	sp,sp,40
9d0055bc:	3c069d00 	lui	a2,0x9d00
9d0055c0:	0f40174a 	jal	9d005d28 <repl>
9d0055c4:	24c6619c 	addiu	a2,a2,24988
9d0055c8:	2403ffff 	li	v1,-1
9d0055cc:	1443ffdf 	bne	v0,v1,9d00554c <_outcnvrt+0x90>
9d0055d0:	02201021 	move	v0,s1
9d0055d4:	0212100a 	movz	v0,s0,s2
9d0055d8:	8fbf0024 	lw	ra,36(sp)
9d0055dc:	8fb40020 	lw	s4,32(sp)
9d0055e0:	8fb3001c 	lw	s3,28(sp)
9d0055e4:	8fb20018 	lw	s2,24(sp)
9d0055e8:	8fb10014 	lw	s1,20(sp)
9d0055ec:	8fb00010 	lw	s0,16(sp)
9d0055f0:	03e00008 	jr	ra
9d0055f4:	27bd0028 	addiu	sp,sp,40

Disassembly of section .dinit:

9d0055f8 <.dinit>:
9d0055f8:	a000000c 	sb	zero,12(zero)
9d0055fc:	000000d4 	0xd4
9d005600:	00000001 	movf	zero,zero,$fcc0
9d005604:	a0000070 	sb	zero,112(zero)
9d005608:	a000008c 	sb	zero,140(zero)
9d00560c:	a00000a8 	sb	zero,168(zero)
9d005610:	a000006c 	sb	zero,108(zero)
9d005614:	a00000e0 	sb	zero,224(zero)
9d005618:	00000001 	movf	zero,zero,$fcc0
	...
9d005668:	ffffffff 	sdc3	$31,-1(ra)
9d00566c:	ffffffff 	sdc3	$31,-1(ra)
9d005670:	00000000 	nop
9d005674:	00000040 	ssnop
9d005678:	00001009 	jalr	v0,zero
9d00567c:	00000000 	nop
9d005680:	9d0064b0 	0x9d0064b0
9d005684:	ffffffff 	sdc3	$31,-1(ra)
	...
9d005694:	00011002 	srl	v0,at,0x0
9d005698:	00000000 	nop
9d00569c:	9d0064b0 	0x9d0064b0
9d0056a0:	ffffffff 	sdc3	$31,-1(ra)
	...
9d0056b0:	00020002 	srl	zero,v0,0x0
9d0056b4:	00000000 	nop
9d0056b8:	9d0064b0 	0x9d0064b0
9d0056bc:	fffffffd 	sdc3	$31,-3(ra)
	...
9d0056d8:	a00000e0 	sb	zero,224(zero)
9d0056dc:	00000088 	0x88
9d0056e0:	00000000 	nop
9d0056e4:	a0000000 	sb	zero,0(zero)
9d0056e8:	00000004 	sllv	zero,zero,zero
9d0056ec:	00000001 	movf	zero,zero,$fcc0
9d0056f0:	a000000c 	sb	zero,12(zero)
9d0056f4:	a0000008 	sb	zero,8(zero)
9d0056f8:	00000004 	sllv	zero,zero,zero
9d0056fc:	00000000 	nop
9d005700:	a0000004 	sb	zero,4(zero)
9d005704:	00000004 	sllv	zero,zero,zero
9d005708:	00000001 	movf	zero,zero,$fcc0
9d00570c:	00000002 	srl	zero,zero,0x0
9d005710:	00000000 	nop
9d005714:	22222222 	addi	v0,s1,8738

Disassembly of section .text.dptofp:

9d005718 <__truncdfsf2>:
9d005718:	00053ac0 00045d42 00eb3825 000432c0     .:..B]..%8...2..
9d005728:	3c018000 00e13825 3c018000 00a14824     ...<%8.....<$H..
9d005738:	00054040 00084542 2508fc80 250bffff     @@..BE.....%...%
9d005748:	2d6100fe 10200012 00000000              ..a-.. .....

9d005754 <Hlab1>:
9d005754:	10c00002 	beqz	a2,9d005760 <i45>
9d005758:	00000000 	nop
9d00575c:	34e70001 	ori	a3,a3,0x1

9d005760 <i45>:
9d005760:	24e70080 	addiu	a3,a3,128
9d005764:	2ceb0080 	sltiu	t3,a3,128
9d005768:	010b4021 	addu	t0,t0,t3
9d00576c:	00075a02 	srl	t3,a3,0x8
9d005770:	316b0001 	andi	t3,t3,0x1
9d005774:	00eb3823 	subu	a3,a3,t3
9d005778:	00073840 	sll	a3,a3,0x1
9d00577c:	00073a42 	srl	a3,a3,0x9
9d005780:	00085dc0 	sll	t3,t0,0x17
9d005784:	00eb3825 	or	a3,a3,t3
9d005788:	00e91025 	or	v0,a3,t1

9d00578c <H999>:
9d00578c:	03e00008 	jr	ra
9d005790:	00000000 	nop
9d005794:	00000000 	nop

9d005798 <Hspec>:
9d005798:	2401047f 	li	at,1151
9d00579c:	15010007 	bne	t0,at,9d0057bc <i46>
9d0057a0:	00000000 	nop
9d0057a4:	00075840 	sll	t3,a3,0x1
9d0057a8:	01665825 	or	t3,t3,a2
9d0057ac:	11600003 	beqz	t3,9d0057bc <i46>
9d0057b0:	00000000 	nop
9d0057b4:	1000fff5 	b	9d00578c <H999>
9d0057b8:	3c02ffc0 	lui	v0,0xffc0

9d0057bc <i46>:
9d0057bc:	290100ff 	slti	at,t0,255
9d0057c0:	14200004 	bnez	at,9d0057d4 <i48>
9d0057c4:	00000000 	nop
9d0057c8:	3c017f80 	lui	at,0x7f80
9d0057cc:	1000ffef 	b	9d00578c <H999>
9d0057d0:	01211025 	or	v0,t1,at

9d0057d4 <i48>:
9d0057d4:	240a0001 	li	t2,1
9d0057d8:	01485023 	subu	t2,t2,t0
9d0057dc:	2d410020 	sltiu	at,t2,32
9d0057e0:	14200003 	bnez	at,9d0057f0 <i49>
9d0057e4:	00000000 	nop
9d0057e8:	1000ffe8 	b	9d00578c <H999>
9d0057ec:	00091025 	or	v0,zero,t1

9d0057f0 <i49>:
9d0057f0:	240c0020 	li	t4,32
9d0057f4:	018a6023 	subu	t4,t4,t2
9d0057f8:	01875804 	sllv	t3,a3,t4
9d0057fc:	00cb3025 	or	a2,a2,t3
9d005800:	01473806 	srlv	a3,a3,t2
9d005804:	24080000 	li	t0,0
9d005808:	3c018000 	lui	at,0x8000
9d00580c:	1000ffd1 	b	9d005754 <Hlab1>
9d005810:	00e13825 	or	a3,a3,at
9d005814:	00000000 	nop

Disassembly of section .text._flsbuf_simple:

9d005818 <_flsbuf_simple>:
9d005818:	27bdffd8 	addiu	sp,sp,-40
9d00581c:	afbf0024 	sw	ra,36(sp)
9d005820:	afb10020 	sw	s1,32(sp)
9d005824:	afb0001c 	sw	s0,28(sp)
9d005828:	00a08021 	move	s0,a1
9d00582c:	8ca2000c 	lw	v0,12(a1)
9d005830:	1040002d 	beqz	v0,9d0058e8 <_flsbuf_simple+0xd0>
9d005834:	00808821 	move	s1,a0
9d005838:	8ca20000 	lw	v0,0(a1)
9d00583c:	24420001 	addiu	v0,v0,1
9d005840:	2403ffff 	li	v1,-1
9d005844:	1043001e 	beq	v0,v1,9d0058c0 <_flsbuf_simple+0xa8>
9d005848:	aca20000 	sw	v0,0(a1)
9d00584c:	0f4017de 	jal	9d005f78 <_fflush_simple>
9d005850:	02002021 	move	a0,s0
9d005854:	8e040000 	lw	a0,0(s0)
9d005858:	8e020004 	lw	v0,4(s0)
9d00585c:	2484ffff 	addiu	a0,a0,-1
9d005860:	24430001 	addiu	v1,v0,1
9d005864:	ae040000 	sw	a0,0(s0)
9d005868:	ae030004 	sw	v1,4(s0)
9d00586c:	a0510000 	sb	s1,0(v0)
9d005870:	2402000a 	li	v0,10
9d005874:	52220007 	beql	s1,v0,9d005894 <_flsbuf_simple+0x7c>
9d005878:	96020010 	lhu	v0,16(s0)
9d00587c:	02201021 	move	v0,s1
9d005880:	8fbf0024 	lw	ra,36(sp)
9d005884:	8fb10020 	lw	s1,32(sp)
9d005888:	8fb0001c 	lw	s0,28(sp)
9d00588c:	03e00008 	jr	ra
9d005890:	27bd0028 	addiu	sp,sp,40
9d005894:	30420008 	andi	v0,v0,0x8
9d005898:	1040fff9 	beqz	v0,9d005880 <_flsbuf_simple+0x68>
9d00589c:	02201021 	move	v0,s1
9d0058a0:	0f4017de 	jal	9d005f78 <_fflush_simple>
9d0058a4:	02002021 	move	a0,s0
9d0058a8:	02201021 	move	v0,s1
9d0058ac:	8fbf0024 	lw	ra,36(sp)
9d0058b0:	8fb10020 	lw	s1,32(sp)
9d0058b4:	8fb0001c 	lw	s0,28(sp)
9d0058b8:	03e00008 	jr	ra
9d0058bc:	27bd0028 	addiu	sp,sp,40
9d0058c0:	8ca20008 	lw	v0,8(a1)
9d0058c4:	1440ffe1 	bnez	v0,9d00584c <_flsbuf_simple+0x34>
9d0058c8:	00000000 	nop
9d0058cc:	94a20010 	lhu	v0,16(a1)
9d0058d0:	aca00004 	sw	zero,4(a1)
9d0058d4:	aca0000c 	sw	zero,12(a1)
9d0058d8:	34420010 	ori	v0,v0,0x10
9d0058dc:	aca00000 	sw	zero,0(a1)
9d0058e0:	0b401613 	j	9d00584c <_flsbuf_simple+0x34>
9d0058e4:	a4a20010 	sh	v0,16(a1)
9d0058e8:	27a40010 	addiu	a0,sp,16
9d0058ec:	24050001 	li	a1,1
9d0058f0:	0f401887 	jal	9d00621c <_mon_write>
9d0058f4:	a3b10010 	sb	s1,16(sp)
9d0058f8:	ae000000 	sw	zero,0(s0)
9d0058fc:	02201021 	move	v0,s1
9d005900:	8fbf0024 	lw	ra,36(sp)
9d005904:	8fb10020 	lw	s1,32(sp)
9d005908:	8fb0001c 	lw	s0,28(sp)
9d00590c:	03e00008 	jr	ra
9d005910:	27bd0028 	addiu	sp,sp,40

Disassembly of section .text._mon_getc:

9d005914 <_mon_getc>:
9d005914:	27bdffe8 	addiu	sp,sp,-24

9d005918 <.LCFI0>:
9d005918:	afbf0014 	sw	ra,20(sp)
9d00591c:	3c02a000 	lui	v0,0xa000
9d005920:	8c420004 	lw	v0,4(v0)
9d005924:	1440000a 	bnez	v0,9d005950 <.LCFI0+0x38>
9d005928:	24030002 	li	v1,2
9d00592c:	3c020000 	lui	v0,0x0
9d005930:	24420000 	addiu	v0,v0,0
9d005934:	10400029 	beqz	v0,9d0059dc <.LCFI0+0xc4>
9d005938:	3c020000 	lui	v0,0x0
9d00593c:	0c000000 	jal	90000000 <_bmxdudba_address+0x8ffe0000>
9d005940:	00000000 	nop
9d005944:	8fbf0014 	lw	ra,20(sp)
9d005948:	03e00008 	jr	ra
9d00594c:	27bd0018 	addiu	sp,sp,24
9d005950:	1043001c 	beq	v0,v1,9d0059c4 <.LCFI0+0xac>
9d005954:	3c02bf80 	lui	v0,0xbf80
9d005958:	3c02bf80 	lui	v0,0xbf80
9d00595c:	8c426000 	lw	v0,24576(v0)
9d005960:	3c05bf80 	lui	a1,0xbf80
9d005964:	24a56030 	addiu	a1,a1,24624
9d005968:	3c04bf80 	lui	a0,0xbf80
9d00596c:	24846010 	addiu	a0,a0,24592
9d005970:	30428000 	andi	v0,v0,0x8000
9d005974:	14400003 	bnez	v0,9d005984 <.LCFI0+0x6c>
9d005978:	34038000 	li	v1,0x8000
9d00597c:	3c02bf80 	lui	v0,0xbf80
9d005980:	ac436008 	sw	v1,24584(v0)
9d005984:	8c820000 	lw	v0,0(a0)
9d005988:	30420001 	andi	v0,v0,0x1
9d00598c:	14400009 	bnez	v0,9d0059b4 <.LCFI0+0x9c>
9d005990:	240200a0 	li	v0,160
9d005994:	0b401669 	j	9d0059a4 <.LCFI0+0x8c>
9d005998:	00000000 	nop
9d00599c:	10400005 	beqz	v0,9d0059b4 <.LCFI0+0x9c>
9d0059a0:	00000000 	nop
9d0059a4:	8c830000 	lw	v1,0(a0)
9d0059a8:	30630001 	andi	v1,v1,0x1
9d0059ac:	1060fffb 	beqz	v1,9d00599c <.LCFI0+0x84>
9d0059b0:	2442ffff 	addiu	v0,v0,-1
9d0059b4:	8ca20000 	lw	v0,0(a1)
9d0059b8:	8fbf0014 	lw	ra,20(sp)
9d0059bc:	03e00008 	jr	ra
9d0059c0:	27bd0018 	addiu	sp,sp,24
9d0059c4:	8c426800 	lw	v0,26624(v0)
9d0059c8:	3c05bf80 	lui	a1,0xbf80
9d0059cc:	24a56830 	addiu	a1,a1,26672
9d0059d0:	3c04bf80 	lui	a0,0xbf80
9d0059d4:	0b40165c 	j	9d005970 <.LCFI0+0x58>
9d0059d8:	24846810 	addiu	a0,a0,26640
9d0059dc:	24420000 	addiu	v0,v0,0
9d0059e0:	5040ffde 	beqzl	v0,9d00595c <.LCFI0+0x44>
9d0059e4:	3c02bf80 	lui	v0,0xbf80
9d0059e8:	0c000000 	jal	90000000 <_bmxdudba_address+0x8ffe0000>
9d0059ec:	00000000 	nop
9d0059f0:	0b401652 	j	9d005948 <.LCFI0+0x30>
9d0059f4:	8fbf0014 	lw	ra,20(sp)

Disassembly of section .text.general_exception:

9d0059f8 <_general_exception_context>:
9d0059f8:	27bdffa8 	addiu	sp,sp,-88
9d0059fc:	afa10004 	sw	at,4(sp)
9d005a00:	afa20008 	sw	v0,8(sp)
9d005a04:	afa3000c 	sw	v1,12(sp)
9d005a08:	afa40010 	sw	a0,16(sp)
9d005a0c:	afa50014 	sw	a1,20(sp)
9d005a10:	afa60018 	sw	a2,24(sp)
9d005a14:	afa7001c 	sw	a3,28(sp)
9d005a18:	afa80020 	sw	t0,32(sp)
9d005a1c:	afa90024 	sw	t1,36(sp)
9d005a20:	afaa0028 	sw	t2,40(sp)
9d005a24:	afab002c 	sw	t3,44(sp)
9d005a28:	afac0030 	sw	t4,48(sp)
9d005a2c:	afad0034 	sw	t5,52(sp)
9d005a30:	afae0038 	sw	t6,56(sp)
9d005a34:	afaf003c 	sw	t7,60(sp)
9d005a38:	afb80040 	sw	t8,64(sp)
9d005a3c:	afb90044 	sw	t9,68(sp)
9d005a40:	afbf0048 	sw	ra,72(sp)
9d005a44:	00004012 	mflo	t0
9d005a48:	afa8004c 	sw	t0,76(sp)
9d005a4c:	00004010 	mfhi	t0
9d005a50:	afa80050 	sw	t0,80(sp)
9d005a54:	3c1a9d00 	lui	k0,0x9d00
9d005a58:	275a62b0 	addiu	k0,k0,25264
9d005a5c:	00000000 	nop
9d005a60:	40046800 	mfc0	a0,c0_cause
9d005a64:	40056000 	mfc0	a1,c0_status
9d005a68:	0340f809 	jalr	k0
9d005a6c:	00000000 	nop
9d005a70:	8fa80050 	lw	t0,80(sp)
9d005a74:	01000011 	mthi	t0
9d005a78:	8fa8004c 	lw	t0,76(sp)
9d005a7c:	01000013 	mtlo	t0
9d005a80:	8fa10004 	lw	at,4(sp)
9d005a84:	8fa20008 	lw	v0,8(sp)
9d005a88:	8fa3000c 	lw	v1,12(sp)
9d005a8c:	8fa40010 	lw	a0,16(sp)
9d005a90:	8fa50014 	lw	a1,20(sp)
9d005a94:	8fa60018 	lw	a2,24(sp)
9d005a98:	8fa7001c 	lw	a3,28(sp)
9d005a9c:	8fa80020 	lw	t0,32(sp)
9d005aa0:	8fa90024 	lw	t1,36(sp)
9d005aa4:	8faa0028 	lw	t2,40(sp)
9d005aa8:	8fab002c 	lw	t3,44(sp)
9d005aac:	8fac0030 	lw	t4,48(sp)
9d005ab0:	8fad0034 	lw	t5,52(sp)
9d005ab4:	8fae0038 	lw	t6,56(sp)
9d005ab8:	8faf003c 	lw	t7,60(sp)
9d005abc:	8fb80040 	lw	t8,64(sp)
9d005ac0:	8fb90044 	lw	t9,68(sp)
9d005ac4:	8fbf0048 	lw	ra,72(sp)
9d005ac8:	27bd0058 	addiu	sp,sp,88
9d005acc:	000000c0 	ehb
9d005ad0:	42000018 	eret

Disassembly of section .text.libm:

9d005ad4 <fpmodf>:
9d005ad4:	00043dc2 30e700ff 3c088000 00043200     .=.....0...<.2..
9d005ae4:	00c83025 01044024 240100ff 10e10028     %0..$@.....$(...
9d005af4:	00000000 00064825 00075025 00085825     ....%H..%P..%X..
9d005b04:	240c009e 01876023 19800006 00000000     ...$#`..........
9d005b14:	29810020 1020001c 00000000 01894806      ..).. ......H..
9d005b24:	01894804                                .H..

9d005b28 <Dlab3>:
9d005b28:	00096040 	sll	t4,t1,0x1
9d005b2c:	000c6242 	srl	t4,t4,0x9
9d005b30:	000a6dc0 	sll	t5,t2,0x17
9d005b34:	018d6025 	or	t4,t4,t5
9d005b38:	018b6825 	or	t5,t4,t3
9d005b3c:	acad0000 	sw	t5,0(a1)
9d005b40:	00ea6023 	subu	t4,a3,t2
9d005b44:	2d810020 	sltiu	at,t4,32
9d005b48:	14200002 	bnez	at,9d005b54 <L2>
9d005b4c:	00000000 	nop
9d005b50:	34090000 	li	t1,0x0

9d005b54 <L2>:
9d005b54:	01894806 	srlv	t1,t1,t4
9d005b58:	00c93023 	subu	a2,a2,t1
9d005b5c:	10c00008 	beqz	a2,9d005b80 <Dret2>
9d005b60:	00000000 	nop
9d005b64:	70cc6020 	clz	t4,a2
9d005b68:	00ec3823 	subu	a3,a3,t4
9d005b6c:	01863004 	sllv	a2,a2,t4

9d005b70 <Dret>:
9d005b70:	00063040 	sll	a2,a2,0x1
9d005b74:	00063242 	srl	a2,a2,0x9
9d005b78:	00076dc0 	sll	t5,a3,0x17
9d005b7c:	00cd3025 	or	a2,a2,t5

9d005b80 <Dret2>:
9d005b80:	00c81025 	or	v0,a2,t0

9d005b84 <D999>:
9d005b84:	03e00008 	jr	ra
9d005b88:	00000000 	nop

9d005b8c <Dzer>:
9d005b8c:	1000fff8 	b	9d005b70 <Dret>
9d005b90:	aca80000 	sw	t0,0(a1)

9d005b94 <Dinfnan>:
9d005b94:	3c04ffc0 	lui	a0,0xffc0
9d005b98:	aca40000 	sw	a0,0(a1)
9d005b9c:	1000fff9 	b	9d005b84 <D999>
9d005ba0:	00041025 	or	v0,zero,a0
9d005ba4:	00000000 	nop

Disassembly of section .text._mon_putc:

9d005ba8 <_mon_putc>:
9d005ba8:	27bdffe8 	addiu	sp,sp,-24

9d005bac <.LCFI0>:
9d005bac:	afbf0014 	sw	ra,20(sp)
9d005bb0:	3c02a000 	lui	v0,0xa000
9d005bb4:	8c420004 	lw	v0,4(v0)
9d005bb8:	1440000a 	bnez	v0,9d005be4 <.LCFI0+0x38>
9d005bbc:	00802821 	move	a1,a0
9d005bc0:	3c020000 	lui	v0,0x0
9d005bc4:	24420000 	addiu	v0,v0,0
9d005bc8:	10400025 	beqz	v0,9d005c60 <.LCFI0+0xb4>
9d005bcc:	3c020000 	lui	v0,0x0
9d005bd0:	0c000000 	jal	90000000 <_bmxdudba_address+0x8ffe0000>
9d005bd4:	00000000 	nop
9d005bd8:	8fbf0014 	lw	ra,20(sp)
9d005bdc:	03e00008 	jr	ra
9d005be0:	27bd0018 	addiu	sp,sp,24
9d005be4:	24030001 	li	v1,1
9d005be8:	10430015 	beq	v0,v1,9d005c40 <.LCFI0+0x94>
9d005bec:	3c04bf80 	lui	a0,0xbf80
9d005bf0:	3c04bf80 	lui	a0,0xbf80
9d005bf4:	24846820 	addiu	a0,a0,26656
9d005bf8:	3c02bf80 	lui	v0,0xbf80
9d005bfc:	24426818 	addiu	v0,v0,26648
9d005c00:	3c06bf80 	lui	a2,0xbf80
9d005c04:	24c66808 	addiu	a2,a2,26632
9d005c08:	3c03bf80 	lui	v1,0xbf80
9d005c0c:	24636810 	addiu	v1,v1,26640
9d005c10:	34078000 	li	a3,0x8000
9d005c14:	acc70000 	sw	a3,0(a2)
9d005c18:	24060400 	li	a2,1024
9d005c1c:	ac460000 	sw	a2,0(v0)
9d005c20:	8c620000 	lw	v0,0(v1)
9d005c24:	30420100 	andi	v0,v0,0x100
9d005c28:	1040fffd 	beqz	v0,9d005c20 <.LCFI0+0x74>
9d005c2c:	00000000 	nop
9d005c30:	ac850000 	sw	a1,0(a0)
9d005c34:	8fbf0014 	lw	ra,20(sp)
9d005c38:	03e00008 	jr	ra
9d005c3c:	27bd0018 	addiu	sp,sp,24
9d005c40:	24846020 	addiu	a0,a0,24608
9d005c44:	3c02bf80 	lui	v0,0xbf80
9d005c48:	24426018 	addiu	v0,v0,24600
9d005c4c:	3c06bf80 	lui	a2,0xbf80
9d005c50:	24c66008 	addiu	a2,a2,24584
9d005c54:	3c03bf80 	lui	v1,0xbf80
9d005c58:	0b401704 	j	9d005c10 <.LCFI0+0x64>
9d005c5c:	24636010 	addiu	v1,v1,24592
9d005c60:	24420000 	addiu	v0,v0,0
9d005c64:	5040ffe3 	beqzl	v0,9d005bf4 <.LCFI0+0x48>
9d005c68:	3c04bf80 	lui	a0,0xbf80
9d005c6c:	0c000000 	jal	90000000 <_bmxdudba_address+0x8ffe0000>
9d005c70:	00000000 	nop
9d005c74:	0b4016f7 	j	9d005bdc <.LCFI0+0x30>
9d005c78:	8fbf0014 	lw	ra,20(sp)

Disassembly of section .text.fputc:

9d005c7c <fputc>:
9d005c7c:	27bdffe0 	addiu	sp,sp,-32
9d005c80:	afbf001c 	sw	ra,28(sp)
9d005c84:	afb10018 	sw	s1,24(sp)
9d005c88:	afb00014 	sw	s0,20(sp)
9d005c8c:	00a08021 	move	s0,a1
9d005c90:	8ca20018 	lw	v0,24(a1)
9d005c94:	00808821 	move	s1,a0
9d005c98:	24050001 	li	a1,1
9d005c9c:	8c420010 	lw	v0,16(v0)
9d005ca0:	0040f809 	jalr	v0
9d005ca4:	02002021 	move	a0,s0
9d005ca8:	1040000e 	beqz	v0,9d005ce4 <fputc+0x68>
9d005cac:	2402ffff 	li	v0,-1
9d005cb0:	8e020000 	lw	v0,0(s0)
9d005cb4:	2442ffff 	addiu	v0,v0,-1
9d005cb8:	04400011 	bltz	v0,9d005d00 <fputc+0x84>
9d005cbc:	ae020000 	sw	v0,0(s0)
9d005cc0:	96020010 	lhu	v0,16(s0)
9d005cc4:	30420008 	andi	v0,v0,0x8
9d005cc8:	1440000b 	bnez	v0,9d005cf8 <fputc+0x7c>
9d005ccc:	2402000a 	li	v0,10
9d005cd0:	8e030004 	lw	v1,4(s0)
9d005cd4:	02201021 	move	v0,s1
9d005cd8:	24640001 	addiu	a0,v1,1
9d005cdc:	ae040004 	sw	a0,4(s0)
9d005ce0:	a0710000 	sb	s1,0(v1)
9d005ce4:	8fbf001c 	lw	ra,28(sp)
9d005ce8:	8fb10018 	lw	s1,24(sp)
9d005cec:	8fb00014 	lw	s0,20(sp)
9d005cf0:	03e00008 	jr	ra
9d005cf4:	27bd0020 	addiu	sp,sp,32
9d005cf8:	5622fff6 	bnel	s1,v0,9d005cd4 <fputc+0x58>
9d005cfc:	8e030004 	lw	v1,4(s0)
9d005d00:	8e020018 	lw	v0,24(s0)
9d005d04:	02202021 	move	a0,s1
9d005d08:	8c420004 	lw	v0,4(v0)
9d005d0c:	0040f809 	jalr	v0
9d005d10:	02002821 	move	a1,s0
9d005d14:	8fbf001c 	lw	ra,28(sp)
9d005d18:	8fb10018 	lw	s1,24(sp)
9d005d1c:	8fb00014 	lw	s0,20(sp)
9d005d20:	03e00008 	jr	ra
9d005d24:	27bd0020 	addiu	sp,sp,32

Disassembly of section .text.repl:

9d005d28 <repl>:
9d005d28:	27bdffd8 	addiu	sp,sp,-40
9d005d2c:	afbf0024 	sw	ra,36(sp)
9d005d30:	afb40020 	sw	s4,32(sp)
9d005d34:	afb3001c 	sw	s3,28(sp)
9d005d38:	afb20018 	sw	s2,24(sp)
9d005d3c:	afb10014 	sw	s1,20(sp)
9d005d40:	afb00010 	sw	s0,16(sp)
9d005d44:	00a08021 	move	s0,a1
9d005d48:	0080a021 	move	s4,a0
9d005d4c:	00c09821 	move	s3,a2
9d005d50:	24120020 	li	s2,32
9d005d54:	2411ffff 	li	s1,-1
9d005d58:	12000011 	beqz	s0,9d005da0 <repl+0x78>
9d005d5c:	2e020021 	sltiu	v0,s0,33
9d005d60:	02401821 	move	v1,s2
9d005d64:	0202180b 	movn	v1,s0,v0
9d005d68:	02602021 	move	a0,s3
9d005d6c:	00602821 	move	a1,v1
9d005d70:	02803021 	move	a2,s4
9d005d74:	0f40183e 	jal	9d0060f8 <__sputn>
9d005d78:	02038023 	subu	s0,s0,v1
9d005d7c:	1451fff6 	bne	v0,s1,9d005d58 <repl+0x30>
9d005d80:	8fbf0024 	lw	ra,36(sp)
9d005d84:	8fb40020 	lw	s4,32(sp)
9d005d88:	8fb3001c 	lw	s3,28(sp)
9d005d8c:	8fb20018 	lw	s2,24(sp)
9d005d90:	8fb10014 	lw	s1,20(sp)
9d005d94:	8fb00010 	lw	s0,16(sp)
9d005d98:	03e00008 	jr	ra
9d005d9c:	27bd0028 	addiu	sp,sp,40
9d005da0:	00001021 	move	v0,zero
9d005da4:	8fbf0024 	lw	ra,36(sp)
9d005da8:	8fb40020 	lw	s4,32(sp)
9d005dac:	8fb3001c 	lw	s3,28(sp)
9d005db0:	8fb20018 	lw	s2,24(sp)
9d005db4:	8fb10014 	lw	s1,20(sp)
9d005db8:	8fb00010 	lw	s0,16(sp)
9d005dbc:	03e00008 	jr	ra
9d005dc0:	27bd0028 	addiu	sp,sp,40

Disassembly of section .text.fpcmp:

9d005dc4 <__eqsf2>:
9d005dc4:	2408fffe 00043040 00053840 00c74825     ...$@0..@8..%H..
9d005dd4:	1120001b 00000000 3c01ff00 34210001     .. ........<..!4
9d005de4:	00c1082b 1020001a 00000000 3c01ff00     +..... ........<
9d005df4:	34210001 00e1082b 10200015 00000000     ..!4+..... .....
9d005e04:	04810002 00063042 00063023              ....B0..#0..

9d005e10 <i48>:
9d005e10:	04a10002 	bgez	a1,9d005e1c <i49>
9d005e14:	00073842 	srl	a3,a3,0x1
9d005e18:	00073823 	negu	a3,a3

9d005e1c <i49>:
9d005e1c:	00c7082a 	slt	at,a2,a3
9d005e20:	10200003 	beqz	at,9d005e30 <i50>
9d005e24:	00000000 	nop
9d005e28:	10000007 	b	9d005e48 <J999>
9d005e2c:	2402ffff 	li	v0,-1

9d005e30 <i50>:
9d005e30:	00e6082a 	slt	at,a3,a2
9d005e34:	10200003 	beqz	at,9d005e44 <Jequ>
9d005e38:	00000000 	nop
9d005e3c:	10000002 	b	9d005e48 <J999>
9d005e40:	24020001 	li	v0,1

9d005e44 <Jequ>:
9d005e44:	24020000 	li	v0,0

9d005e48 <J999>:
9d005e48:	03e00008 	jr	ra
9d005e4c:	00000000 	nop
9d005e50:	00000000 	nop

9d005e54 <Jnan>:
9d005e54:	1000fffc 	b	9d005e48 <J999>
9d005e58:	00081025 	or	v0,zero,t0
9d005e5c:	00000000 	nop

Disassembly of section .text.strlen:

9d005e60 <strlen>:
9d005e60:	30830003 	andi	v1,a0,0x3
9d005e64:	1460001e 	bnez	v1,9d005ee0 <strlen+0x80>
9d005e68:	00801021 	move	v0,a0
9d005e6c:	8c820000 	lw	v0,0(a0)
9d005e70:	3c07fefe 	lui	a3,0xfefe
9d005e74:	34e7feff 	ori	a3,a3,0xfeff
9d005e78:	00471821 	addu	v1,v0,a3
9d005e7c:	00021027 	nor	v0,zero,v0
9d005e80:	3c068080 	lui	a2,0x8080
9d005e84:	34c68080 	ori	a2,a2,0x8080
9d005e88:	00621824 	and	v1,v1,v0
9d005e8c:	00661824 	and	v1,v1,a2
9d005e90:	14600013 	bnez	v1,9d005ee0 <strlen+0x80>
9d005e94:	00801021 	move	v0,a0
9d005e98:	24420004 	addiu	v0,v0,4
9d005e9c:	8c430000 	lw	v1,0(v0)
9d005ea0:	00672821 	addu	a1,v1,a3
9d005ea4:	00031827 	nor	v1,zero,v1
9d005ea8:	00a31824 	and	v1,a1,v1
9d005eac:	00661824 	and	v1,v1,a2
9d005eb0:	5460000c 	bnezl	v1,9d005ee4 <strlen+0x84>
9d005eb4:	80430000 	lb	v1,0(v0)
9d005eb8:	24420004 	addiu	v0,v0,4
9d005ebc:	8c430000 	lw	v1,0(v0)
9d005ec0:	00672821 	addu	a1,v1,a3
9d005ec4:	00031827 	nor	v1,zero,v1
9d005ec8:	00a31824 	and	v1,a1,v1
9d005ecc:	00661824 	and	v1,v1,a2
9d005ed0:	5060fff2 	beqzl	v1,9d005e9c <strlen+0x3c>
9d005ed4:	24420004 	addiu	v0,v0,4
9d005ed8:	0b4017b9 	j	9d005ee4 <strlen+0x84>
9d005edc:	80430000 	lb	v1,0(v0)
9d005ee0:	80430000 	lb	v1,0(v0)
9d005ee4:	5460fffe 	bnezl	v1,9d005ee0 <strlen+0x80>
9d005ee8:	24420001 	addiu	v0,v0,1
9d005eec:	03e00008 	jr	ra
9d005ef0:	00441023 	subu	v0,v0,a0

Disassembly of section .text:

9d005ef4 <__pic32_data_init>:
9d005ef4:	03e01821 	move	v1,ra

9d005ef8 <_dinit_init>:
9d005ef8:	3c089d00 	lui	t0,0x9d00
9d005efc:	250855f8 	addiu	t0,t0,22008
9d005f00:	8d090000 	lw	t1,0(t0)
9d005f04:	11200018 	beqz	t1,9d005f68 <_dinit_end+0x18>
9d005f08:	25080004 	addiu	t0,t0,4
9d005f0c:	8d0a0000 	lw	t2,0(t0)
9d005f10:	25080004 	addiu	t0,t0,4
9d005f14:	8d0b0000 	lw	t3,0(t0)
9d005f18:	11600009 	beqz	t3,9d005f40 <_dinit_clear>
9d005f1c:	25080004 	addiu	t0,t0,4

9d005f20 <_dinit_copy>:
9d005f20:	910c0000 	lbu	t4,0(t0)
9d005f24:	254affff 	addiu	t2,t2,-1
9d005f28:	25080001 	addiu	t0,t0,1
9d005f2c:	a12c0000 	sb	t4,0(t1)
9d005f30:	1540fffb 	bnez	t2,9d005f20 <_dinit_copy>
9d005f34:	25290001 	addiu	t1,t1,1
9d005f38:	10000005 	b	9d005f50 <_dinit_end>
9d005f3c:	00000000 	nop

9d005f40 <_dinit_clear>:
9d005f40:	a1200000 	sb	zero,0(t1)
9d005f44:	254affff 	addiu	t2,t2,-1
9d005f48:	1540fffd 	bnez	t2,9d005f40 <_dinit_clear>
9d005f4c:	25290001 	addiu	t1,t1,1

9d005f50 <_dinit_end>:
9d005f50:	25080003 	addiu	t0,t0,3
9d005f54:	240afffc 	li	t2,-4
9d005f58:	01484024 	and	t0,t2,t0
9d005f5c:	8d090000 	lw	t1,0(t0)
9d005f60:	1520ffe7 	bnez	t1,9d005f00 <_dinit_init+0x8>
9d005f64:	00000000 	nop
9d005f68:	0060f821 	move	ra,v1
9d005f6c:	03e00008 	jr	ra
9d005f70:	00000000 	nop
9d005f74:	00000000 	nop

Disassembly of section .text._fflush_simple:

9d005f78 <_fflush_simple>:
9d005f78:	27bdffe8 	addiu	sp,sp,-24
9d005f7c:	afbf0014 	sw	ra,20(sp)
9d005f80:	afb00010 	sw	s0,16(sp)
9d005f84:	94820010 	lhu	v0,16(a0)
9d005f88:	30420002 	andi	v0,v0,0x2
9d005f8c:	10400013 	beqz	v0,9d005fdc <_fflush_simple+0x64>
9d005f90:	00808021 	move	s0,a0
9d005f94:	8c850000 	lw	a1,0(a0)
9d005f98:	04a0000c 	bltz	a1,9d005fcc <_fflush_simple+0x54>
9d005f9c:	00001021 	move	v0,zero
9d005fa0:	8c82000c 	lw	v0,12(a0)
9d005fa4:	50a20006 	beql	a1,v0,9d005fc0 <_fflush_simple+0x48>
9d005fa8:	8e030008 	lw	v1,8(s0)
9d005fac:	8c840008 	lw	a0,8(a0)
9d005fb0:	0f401887 	jal	9d00621c <_mon_write>
9d005fb4:	00452823 	subu	a1,v0,a1
9d005fb8:	8e02000c 	lw	v0,12(s0)
9d005fbc:	8e030008 	lw	v1,8(s0)
9d005fc0:	ae020000 	sw	v0,0(s0)
9d005fc4:	ae030004 	sw	v1,4(s0)
9d005fc8:	00001021 	move	v0,zero
9d005fcc:	8fbf0014 	lw	ra,20(sp)
9d005fd0:	8fb00010 	lw	s0,16(sp)
9d005fd4:	03e00008 	jr	ra
9d005fd8:	27bd0018 	addiu	sp,sp,24
9d005fdc:	2402ffff 	li	v0,-1
9d005fe0:	ac820004 	sw	v0,4(a0)
9d005fe4:	00001021 	move	v0,zero
9d005fe8:	8fbf0014 	lw	ra,20(sp)
9d005fec:	8fb00010 	lw	s0,16(sp)
9d005ff0:	03e00008 	jr	ra
9d005ff4:	27bd0018 	addiu	sp,sp,24

Disassembly of section .text._fwrite_simple:

9d005ff8 <_fwrite_simple>:
9d005ff8:	27bdffd8 	addiu	sp,sp,-40
9d005ffc:	afbf0024 	sw	ra,36(sp)
9d006000:	afb10020 	sw	s1,32(sp)
9d006004:	afb0001c 	sw	s0,28(sp)
9d006008:	70c58002 	mul	s0,a2,a1
9d00600c:	12000007 	beqz	s0,9d00602c <_fwrite_simple+0x34>
9d006010:	00001021 	move	v0,zero
9d006014:	94e30010 	lhu	v1,16(a3)
9d006018:	30630001 	andi	v1,v1,0x1
9d00601c:	10600008 	beqz	v1,9d006040 <_fwrite_simple+0x48>
9d006020:	3c03a000 	lui	v1,0xa000
9d006024:	24040009 	li	a0,9
9d006028:	ac640008 	sw	a0,8(v1)
9d00602c:	8fbf0024 	lw	ra,36(sp)
9d006030:	8fb10020 	lw	s1,32(sp)
9d006034:	8fb0001c 	lw	s0,28(sp)
9d006038:	03e00008 	jr	ra
9d00603c:	27bd0028 	addiu	sp,sp,40
9d006040:	00808821 	move	s1,a0
9d006044:	00e02021 	move	a0,a3
9d006048:	0f4017de 	jal	9d005f78 <_fflush_simple>
9d00604c:	afa60010 	sw	a2,16(sp)
9d006050:	02202021 	move	a0,s1
9d006054:	0f401887 	jal	9d00621c <_mon_write>
9d006058:	02002821 	move	a1,s0
9d00605c:	8fa60010 	lw	a2,16(sp)
9d006060:	00c01021 	move	v0,a2
9d006064:	8fbf0024 	lw	ra,36(sp)
9d006068:	8fb10020 	lw	s1,32(sp)
9d00606c:	8fb0001c 	lw	s0,28(sp)
9d006070:	03e00008 	jr	ra
9d006074:	27bd0028 	addiu	sp,sp,40

Disassembly of section .text.fptoli:

9d006078 <__fixsfsi>:
9d006078:	00042a00 3c018000 00a12825 00043dc2     .*.....<%(...=..
9d006088:	30e700ff 2406009e 00c73023 18c0000d     ...0...$#0......
9d006098:	00000000 28c10020 14200003 00000000     .... ..(.. .....
9d0060a8:	10000005 24020000                       .......$

9d0060b0 <i42>:
9d0060b0:	04810002 	bgez	a0,9d0060bc <i43>
9d0060b4:	00c52806 	srlv	a1,a1,a2
9d0060b8:	00052823 	negu	a1,a1

9d0060bc <i43>:
9d0060bc:	00051025 	or	v0,zero,a1

9d0060c0 <G999>:
9d0060c0:	03e00008 	jr	ra
9d0060c4:	00000000 	nop
9d0060c8:	00000000 	nop

9d0060cc <Gspec>:
9d0060cc:	3c017f80 	lui	at,0x7f80
9d0060d0:	34210001 	ori	at,at,0x1
9d0060d4:	0081082b 	sltu	at,a0,at
9d0060d8:	14200003 	bnez	at,9d0060e8 <i44>
9d0060dc:	00000000 	nop
9d0060e0:	1000fff7 	b	9d0060c0 <G999>
9d0060e4:	3c028000 	lui	v0,0x8000

9d0060e8 <i44>:
9d0060e8:	3c027fff 	lui	v0,0x7fff
9d0060ec:	1000fff4 	b	9d0060c0 <G999>
9d0060f0:	3442ffff 	ori	v0,v0,0xffff
9d0060f4:	00000000 	nop

Disassembly of section .text.__sputn:

9d0060f8 <__sputn>:
9d0060f8:	27bdffd8 	addiu	sp,sp,-40
9d0060fc:	afbf0024 	sw	ra,36(sp)
9d006100:	afb30020 	sw	s3,32(sp)
9d006104:	afb2001c 	sw	s2,28(sp)
9d006108:	afb10018 	sw	s1,24(sp)
9d00610c:	afb00014 	sw	s0,20(sp)
9d006110:	00808021 	move	s0,a0
9d006114:	00c09021 	move	s2,a2
9d006118:	00858821 	addu	s1,a0,a1
9d00611c:	0b40184e 	j	9d006138 <__sputn+0x40>
9d006120:	2413ffff 	li	s3,-1
9d006124:	26100001 	addiu	s0,s0,1
9d006128:	0f40171f 	jal	9d005c7c <.LFE0>
9d00612c:	8204ffff 	lb	a0,-1(s0)
9d006130:	10530005 	beq	v0,s3,9d006148 <__sputn+0x50>
9d006134:	8fbf0024 	lw	ra,36(sp)
9d006138:	1611fffa 	bne	s0,s1,9d006124 <__sputn+0x2c>
9d00613c:	02402821 	move	a1,s2
9d006140:	00001021 	move	v0,zero
9d006144:	8fbf0024 	lw	ra,36(sp)
9d006148:	8fb30020 	lw	s3,32(sp)
9d00614c:	8fb2001c 	lw	s2,28(sp)
9d006150:	8fb10018 	lw	s1,24(sp)
9d006154:	8fb00014 	lw	s0,20(sp)
9d006158:	03e00008 	jr	ra
9d00615c:	27bd0028 	addiu	sp,sp,40

Disassembly of section .rodata:

9d006160 <zeroData-0x1c>:
9d006160:	004e614e 	0x4e614e
9d006164:	666e492d 	0x666e492d
9d006168:	00000000 	nop
9d00616c:	666e492b 	0x666e492b
9d006170:	00000000 	nop
9d006174:	6c756e28 	0x6c756e28
9d006178:	0000296c 	0x296c

9d00617c <zeroData>:
9d00617c:	30303030 30303030 30303030 30303030     0000000000000000
9d00618c:	30303030 30303030 30303030 30303030     0000000000000000

9d00619c <spaceData>:
9d00619c:	20202020 20202020 20202020 20202020                     
9d0061ac:	20202020 20202020 20202020 20202020                     
9d0061bc:	41200000 3c23d70a 40800000              .. A..#<...@

Disassembly of section .text.main_entry:

9d0061c8 <_main_entry>:
9d0061c8:	3c040000 	lui	a0,0x0
9d0061cc:	27bdffe8 	addiu	sp,sp,-24
9d0061d0:	24840000 	addiu	a0,a0,0
9d0061d4:	10800003 	beqz	a0,9d0061e4 <_main_entry+0x1c>
9d0061d8:	afbf0014 	sw	ra,20(sp)
9d0061dc:	0080f809 	jalr	a0
9d0061e0:	00000000 	nop
9d0061e4:	30840000 	andi	a0,a0,0x0
9d0061e8:	30a50000 	andi	a1,a1,0x0
9d0061ec:	3c089d00 	lui	t0,0x9d00
9d0061f0:	25082d7c 	addiu	t0,t0,11644
9d0061f4:	0100f809 	jalr	t0
9d0061f8:	00000000 	nop

9d0061fc <__crt0_exit>:
9d0061fc:	3c020000 24420000 10400003 00000000     ...<..B$..@.....
9d00620c:	0040f809 00000000 1000fff9 00000000     ..@.............

Disassembly of section .text._mon_write:

9d00621c <_mon_write>:
9d00621c:	27bdffe0 	addiu	sp,sp,-32

9d006220 <.LCFI0>:
9d006220:	afbf001c 	sw	ra,28(sp)
9d006224:	afb10018 	sw	s1,24(sp)
9d006228:	afb00014 	sw	s0,20(sp)
9d00622c:	10800009 	beqz	a0,9d006254 <.LCFI0+0x34>
9d006230:	00808021 	move	s0,a0
9d006234:	10a00007 	beqz	a1,9d006254 <.LCFI0+0x34>
9d006238:	00a08821 	move	s1,a1
9d00623c:	82040000 	lb	a0,0(s0)
9d006240:	2631ffff 	addiu	s1,s1,-1
9d006244:	0f4016ea 	jal	9d005ba8 <_mon_putc>
9d006248:	26100001 	addiu	s0,s0,1
9d00624c:	5620fffc 	bnezl	s1,9d006240 <.LCFI0+0x20>
9d006250:	82040000 	lb	a0,0(s0)
9d006254:	8fbf001c 	lw	ra,28(sp)
9d006258:	8fb10018 	lw	s1,24(sp)
9d00625c:	8fb00014 	lw	s0,20(sp)
9d006260:	03e00008 	jr	ra
9d006264:	27bd0020 	addiu	sp,sp,32

Disassembly of section .text._bootstrap_exception_handler:

9d006268 <_bootstrap_exception_handler>:
9d006268:	3c020000 	lui	v0,0x0
9d00626c:	24420000 	addiu	v0,v0,0
9d006270:	10400005 	beqz	v0,9d006288 <_bootstrap_exception_handler+0x20>
9d006274:	3c020000 	lui	v0,0x0
9d006278:	24420000 	addiu	v0,v0,0
9d00627c:	10400003 	beqz	v0,9d00628c <_bootstrap_exception_handler+0x24>
9d006280:	3c029d00 	lui	v0,0x9d00
9d006284:	7000003f 	sdbbp
9d006288:	3c029d00 	lui	v0,0x9d00
9d00628c:	24426340 	addiu	v0,v0,25408
9d006290:	10400005 	beqz	v0,9d0062a8 <.LCFI2>
9d006294:	00000000 	nop
9d006298:	27bdffe8 	addiu	sp,sp,-24

9d00629c <.LCFI0>:
9d00629c:	afbf0014 	sw	ra,20(sp)
9d0062a0:	0040f809 	jalr	v0
9d0062a4:	00000000 	nop

9d0062a8 <.LCFI2>:
9d0062a8:	0b4018aa 	j	9d0062a8 <.LCFI2>
9d0062ac:	00000000 	nop

Disassembly of section .text._general_exception_handler:

9d0062b0 <_general_exception_handler>:
9d0062b0:	3c020000 	lui	v0,0x0
9d0062b4:	24420000 	addiu	v0,v0,0
9d0062b8:	10400005 	beqz	v0,9d0062d0 <_general_exception_handler+0x20>
9d0062bc:	3c020000 	lui	v0,0x0
9d0062c0:	24420000 	addiu	v0,v0,0
9d0062c4:	10400003 	beqz	v0,9d0062d4 <_general_exception_handler+0x24>
9d0062c8:	3c029d00 	lui	v0,0x9d00
9d0062cc:	7000003f 	sdbbp
9d0062d0:	3c029d00 	lui	v0,0x9d00
9d0062d4:	24426340 	addiu	v0,v0,25408
9d0062d8:	10400005 	beqz	v0,9d0062f0 <.LCFI2>
9d0062dc:	00000000 	nop
9d0062e0:	27bdffe8 	addiu	sp,sp,-24

9d0062e4 <.LCFI0>:
9d0062e4:	afbf0014 	sw	ra,20(sp)
9d0062e8:	0040f809 	jalr	v0
9d0062ec:	00000000 	nop

9d0062f0 <.LCFI2>:
9d0062f0:	0b4018bc 	j	9d0062f0 <.LCFI2>
9d0062f4:	00000000 	nop

Disassembly of section .vector_default:

9d0062f8 <_DefaultInterrupt>:
9d0062f8:	3c020000 	lui	v0,0x0
9d0062fc:	24420000 	addiu	v0,v0,0
9d006300:	10400007 	beqz	v0,9d006320 <_DefaultInterrupt+0x28>
9d006304:	3c020000 	lui	v0,0x0
9d006308:	24420000 	addiu	v0,v0,0
9d00630c:	50400005 	beqzl	v0,9d006324 <_DefaultInterrupt+0x2c>
9d006310:	3c029d00 	lui	v0,0x9d00
9d006314:	7000003f 	sdbbp
9d006318:	03e00008 	jr	ra
9d00631c:	00000000 	nop
9d006320:	3c029d00 	lui	v0,0x9d00
9d006324:	24426340 	addiu	v0,v0,25408
9d006328:	10400003 	beqz	v0,9d006338 <_DefaultInterrupt+0x40>
9d00632c:	00000000 	nop
9d006330:	0040f809 	jalr	v0
9d006334:	00000000 	nop
9d006338:	03e00008 	jr	ra
9d00633c:	00000000 	nop

Disassembly of section .text:

9d006340 <__pic32_software_reset>:
9d006340:	41606000 	di
9d006344:	000000c0 	ehb
9d006348:	3c03aa99 	lui	v1,0xaa99
9d00634c:	3c02bf81 	lui	v0,0xbf81
9d006350:	24636655 	addiu	v1,v1,26197
9d006354:	ac40f230 	sw	zero,-3536(v0)
9d006358:	ac43f230 	sw	v1,-3536(v0)
9d00635c:	3c035566 	lui	v1,0x5566
9d006360:	346399aa 	ori	v1,v1,0x99aa
9d006364:	ac43f230 	sw	v1,-3536(v0)
9d006368:	3c02bf81 	lui	v0,0xbf81
9d00636c:	24030001 	li	v1,1
9d006370:	ac43f618 	sw	v1,-2536(v0)
9d006374:	3c02bf81 	lui	v0,0xbf81
9d006378:	8c42f610 	lw	v0,-2544(v0)
9d00637c:	0b4018d2 	j	9d006348 <__pic32_software_reset+0x8>
9d006380:	00000000 	nop

Disassembly of section .text._printf_cdfFnopuxX:

9d006384 <_printf_cdfFnopuxX>:
9d006384:	27bdffe0 	addiu	sp,sp,-32
9d006388:	afbf001c 	sw	ra,28(sp)
9d00638c:	3c02a000 	lui	v0,0xa000
9d006390:	8c420000 	lw	v0,0(v0)
9d006394:	afa50024 	sw	a1,36(sp)
9d006398:	afa60028 	sw	a2,40(sp)
9d00639c:	afa7002c 	sw	a3,44(sp)
9d0063a0:	00802821 	move	a1,a0
9d0063a4:	8c440004 	lw	a0,4(v0)
9d0063a8:	27a20024 	addiu	v0,sp,36
9d0063ac:	00403021 	move	a2,v0
9d0063b0:	0f400780 	jal	9d001e00 <_do_print_cdfFnopuxX>
9d0063b4:	afa20010 	sw	v0,16(sp)
9d0063b8:	8fbf001c 	lw	ra,28(sp)
9d0063bc:	03e00008 	jr	ra
9d0063c0:	27bd0020 	addiu	sp,sp,32

Disassembly of section .text._filbuf_simple:

9d0063c4 <_filbuf_simple>:
9d0063c4:	8c820004 	lw	v0,4(a0)
9d0063c8:	2403ffff 	li	v1,-1
9d0063cc:	10430003 	beq	v0,v1,9d0063dc <_filbuf_simple+0x18>
9d0063d0:	ac800000 	sw	zero,0(a0)
9d0063d4:	03e00008 	jr	ra
9d0063d8:	ac830004 	sw	v1,4(a0)
9d0063dc:	27bdffe8 	addiu	sp,sp,-24
9d0063e0:	afbf0014 	sw	ra,20(sp)
9d0063e4:	0f401645 	jal	9d005914 <_mon_getc>
9d0063e8:	24040001 	li	a0,1
9d0063ec:	8fbf0014 	lw	ra,20(sp)
9d0063f0:	03e00008 	jr	ra
9d0063f4:	27bd0018 	addiu	sp,sp,24

Disassembly of section .text._fsync_simple:

9d0063f8 <_fsync_simple>:
9d0063f8:	94830010 	lhu	v1,16(a0)
9d0063fc:	00a32824 	and	a1,a1,v1
9d006400:	10a00007 	beqz	a1,9d006420 <_fsync_simple+0x28>
9d006404:	24020001 	li	v0,1
9d006408:	34630040 	ori	v1,v1,0x40
9d00640c:	a4830010 	sh	v1,16(a0)
9d006410:	24030009 	li	v1,9
9d006414:	3c02a000 	lui	v0,0xa000
9d006418:	ac430008 	sw	v1,8(v0)
9d00641c:	00001021 	move	v0,zero
9d006420:	03e00008 	jr	ra
9d006424:	00000000 	nop

Disassembly of section .text.putchar:

9d006428 <putchar>:
9d006428:	27bdffe8 	addiu	sp,sp,-24
9d00642c:	afbf0014 	sw	ra,20(sp)
9d006430:	3c02a000 	lui	v0,0xa000
9d006434:	8c420000 	lw	v0,0(v0)
9d006438:	0f40171f 	jal	9d005c7c <.LFE0>
9d00643c:	8c450004 	lw	a1,4(v0)
9d006440:	8fbf0014 	lw	ra,20(sp)
9d006444:	03e00008 	jr	ra
9d006448:	27bd0018 	addiu	sp,sp,24

Disassembly of section .text.putc:

9d00644c <putc>:
9d00644c:	27bdffe8 	addiu	sp,sp,-24
9d006450:	afbf0014 	sw	ra,20(sp)
9d006454:	0f40171f 	jal	9d005c7c <.LFE0>
9d006458:	00000000 	nop
9d00645c:	8fbf0014 	lw	ra,20(sp)
9d006460:	03e00008 	jr	ra
9d006464:	27bd0018 	addiu	sp,sp,24

Disassembly of section .text._vfprintf_cdfFnopuxX:

9d006468 <_vfprintf_cdfFnopuxX>:
9d006468:	27bdffe8 	addiu	sp,sp,-24
9d00646c:	afbf0014 	sw	ra,20(sp)
9d006470:	0f400780 	jal	9d001e00 <_do_print_cdfFnopuxX>
9d006474:	00000000 	nop
9d006478:	8fbf0014 	lw	ra,20(sp)
9d00647c:	03e00008 	jr	ra
9d006480:	27bd0018 	addiu	sp,sp,24

Disassembly of section .text:

9d006484 <_nmi_handler>:
9d006484:	401a6000 	mfc0	k0,c0_status
9d006488:	3c1bffbf 	lui	k1,0xffbf
9d00648c:	377bffff 	ori	k1,k1,0xffff
9d006490:	035bd024 	and	k0,k0,k1
9d006494:	409a6000 	mtc0	k0,c0_status
9d006498:	42000018 	eret

Disassembly of section .text._io_exit:

9d00649c <_io_exit>:
9d00649c:	3c02a000 	lui	v0,0xa000
9d0064a0:	8c420000 	lw	v0,0(v0)
9d0064a4:	24030001 	li	v1,1
9d0064a8:	03e00008 	jr	ra
9d0064ac:	ac430038 	sw	v1,56(v0)

Disassembly of section .rodata:

9d0064b0 <_io_funcs>:
9d0064b0:	9d0063c4 9d005818 9d005f78 9d005ff8     .c...X..x_..._..
9d0064c0:	9d0063f8                                .c..

Disassembly of section .text._io_exit:

9d0064c4 <.text._io_exit>:
9d0064c4:	3c02a000 	lui	v0,0xa000
9d0064c8:	8c420000 	lw	v0,0(v0)
9d0064cc:	24030001 	li	v1,1
9d0064d0:	03e00008 	jr	ra
9d0064d4:	ac430038 	sw	v1,56(v0)

Disassembly of section .text._on_reset:

9d0064d8 <_on_reset>:
9d0064d8:	03e00008 	jr	ra
9d0064dc:	00000000 	nop

Disassembly of section .text._on_bootstrap:

9d0064e0 <_on_bootstrap>:
9d0064e0:	03e00008 	jr	ra
9d0064e4:	00000000 	nop
